GAS LISTING /tmp/cctogVpw.s 			page 1


   1              		.file	"_sem.cpp"
   2              		.option pic
   3              		.option norelax
   4              		.text
   5              	.Ltext0:
   6              		.align	2
   7              		.globl	_ZN4_sem4waitEv
   9              	_ZN4_sem4waitEv:
  10              	.LFB15:
  11              		.file 1 "src/_sem.cpp"
   1:src/_sem.cpp  **** //
   2:src/_sem.cpp  **** // Created by Danilo on 6/3/23.
   3:src/_sem.cpp  **** //
   4:src/_sem.cpp  **** #include "../h/_sem.hpp"
   5:src/_sem.cpp  **** #include "../h/_thread.hpp"
   6:src/_sem.cpp  **** 
   7:src/_sem.cpp  **** _sem *_sem::open(unsigned int init) {
   8:src/_sem.cpp  ****     return new _sem(init);
   9:src/_sem.cpp  **** }
  10:src/_sem.cpp  **** 
  11:src/_sem.cpp  **** int _sem::close() {
  12:src/_sem.cpp  ****     _thread* t = this->blocked->removeFirst();
  13:src/_sem.cpp  ****     while(t) {
  14:src/_sem.cpp  ****         t->setBlocked(false);
  15:src/_sem.cpp  ****         Scheduler::put(t);
  16:src/_sem.cpp  ****         t = this->blocked->removeFirst();
  17:src/_sem.cpp  ****     }
  18:src/_sem.cpp  ****     MemoryAllocator::mem_free(this->blocked);
  19:src/_sem.cpp  ****     delete this;
  20:src/_sem.cpp  ****     return 0;
  21:src/_sem.cpp  **** }
  22:src/_sem.cpp  **** 
  23:src/_sem.cpp  **** int _sem::wait() {
  12              		.loc 1 23 18
  13              		.cfi_startproc
  14              	.LVL0:
  24:src/_sem.cpp  ****     if (--this->val < 0) {
  15              		.loc 1 24 5
  16              		.loc 1 24 17 is_stmt 0
  17 0000 83270500 		lw	a5,0(a0)
  18              		.loc 1 24 9
  19 0004 9B87F7FF 		addiw	a5,a5,-1
  20              		.loc 1 24 21
  21 0008 2320F500 		sw	a5,0(a0)
  22              		.loc 1 24 5
  23 000c 13970702 		slli	a4,a5,32
  24 0010 63460700 		bltz	a4,.L7
  25:src/_sem.cpp  ****         _thread::running->setBlocked(true);
  26:src/_sem.cpp  ****         this->blocked->addLast(_thread::running);
  27:src/_sem.cpp  ****         _thread::running->dispatch();
  28:src/_sem.cpp  ****     }
  29:src/_sem.cpp  ****     return 0;
  25              		.loc 1 29 5 is_stmt 1
  30:src/_sem.cpp  **** }
  26              		.loc 1 30 1 is_stmt 0
  27 0014 13050000 		li	a0,0
  28              	.LVL1:
GAS LISTING /tmp/cctogVpw.s 			page 2


  29 0018 67800000 		ret
  30              	.LVL2:
  31              	.L7:
  23:src/_sem.cpp  ****     if (--this->val < 0) {
  32              		.loc 1 23 18
  33 001c 130101FE 		addi	sp,sp,-32
  34              		.cfi_def_cfa_offset 32
  35 0020 233C1100 		sd	ra,24(sp)
  36 0024 23388100 		sd	s0,16(sp)
  37 0028 23349100 		sd	s1,8(sp)
  38 002c 23302101 		sd	s2,0(sp)
  39              		.cfi_offset 1, -8
  40              		.cfi_offset 8, -16
  41              		.cfi_offset 9, -24
  42              		.cfi_offset 18, -32
  43 0030 13040102 		addi	s0,sp,32
  44              		.cfi_def_cfa 8, 0
  45 0034 93040500 		mv	s1,a0
  25:src/_sem.cpp  ****         _thread::running->setBlocked(true);
  46              		.loc 1 25 9 is_stmt 1
  25:src/_sem.cpp  ****         _thread::running->setBlocked(true);
  47              		.loc 1 25 37 is_stmt 0
  48 0038 17090000 		la	s2,_ZN7_thread7runningE
  48      03390900 
  49 0040 93051000 		li	a1,1
  50 0044 03350900 		ld	a0,0(s2)
  51              	.LVL3:
  52 0048 97000000 		call	_ZN7_thread10setBlockedEb@plt
  52      E7800000 
  53              	.LVL4:
  26:src/_sem.cpp  ****         _thread::running->dispatch();
  54              		.loc 1 26 9 is_stmt 1
  26:src/_sem.cpp  ****         _thread::running->dispatch();
  55              		.loc 1 26 31 is_stmt 0
  56 0050 83350900 		ld	a1,0(s2)
  57 0054 03B58400 		ld	a0,8(s1)
  58 0058 97000000 		call	_ZN4List7addLastEP7_thread@plt
  58      E7800000 
  59              	.LVL5:
  27:src/_sem.cpp  ****     }
  60              		.loc 1 27 9 is_stmt 1
  27:src/_sem.cpp  ****     }
  61              		.loc 1 27 35 is_stmt 0
  62 0060 97000000 		call	_ZN7_thread8dispatchEv@plt
  62      E7800000 
  63              	.LVL6:
  29:src/_sem.cpp  **** }
  64              		.loc 1 29 5 is_stmt 1
  65              		.loc 1 30 1 is_stmt 0
  66 0068 13050000 		li	a0,0
  67 006c 83308101 		ld	ra,24(sp)
  68              		.cfi_restore 1
  69 0070 03340101 		ld	s0,16(sp)
  70              		.cfi_restore 8
  71              		.cfi_def_cfa 2, 32
  72 0074 83348100 		ld	s1,8(sp)
  73              		.cfi_restore 9
GAS LISTING /tmp/cctogVpw.s 			page 3


  74              	.LVL7:
  75 0078 03390100 		ld	s2,0(sp)
  76              		.cfi_restore 18
  77 007c 13010102 		addi	sp,sp,32
  78              		.cfi_def_cfa_offset 0
  79 0080 67800000 		jr	ra
  80              		.cfi_endproc
  81              	.LFE15:
  83              		.align	2
  84              		.globl	_ZN4_sem6signalEv
  86              	_ZN4_sem6signalEv:
  87              	.LFB16:
  31:src/_sem.cpp  **** 
  32:src/_sem.cpp  **** int _sem::signal() {
  88              		.loc 1 32 20 is_stmt 1
  89              		.cfi_startproc
  90              	.LVL8:
  33:src/_sem.cpp  ****     if (++this->val <= 0) {
  91              		.loc 1 33 5
  92              	.LBB2:
  93              		.loc 1 33 17 is_stmt 0
  94 0084 83270500 		lw	a5,0(a0)
  95              		.loc 1 33 9
  96 0088 9B871700 		addiw	a5,a5,1
  97 008c 1B870700 		sext.w	a4,a5
  98              		.loc 1 33 21
  99 0090 2320F500 		sw	a5,0(a0)
 100              		.loc 1 33 5
 101 0094 6356E000 		blez	a4,.L14
 102              	.LBE2:
  34:src/_sem.cpp  ****         _thread* t = this->blocked->removeFirst();
  35:src/_sem.cpp  ****         if (t) {
  36:src/_sem.cpp  ****             t->setBlocked(false);
  37:src/_sem.cpp  ****             Scheduler::put(t);
  38:src/_sem.cpp  ****         }
  39:src/_sem.cpp  ****     }
  40:src/_sem.cpp  ****     return 0;
 103              		.loc 1 40 5 is_stmt 1
  41:src/_sem.cpp  **** }
 104              		.loc 1 41 1 is_stmt 0
 105 0098 13050000 		li	a0,0
 106              	.LVL9:
 107 009c 67800000 		ret
 108              	.LVL10:
 109              	.L14:
  32:src/_sem.cpp  ****     if (++this->val <= 0) {
 110              		.loc 1 32 20
 111 00a0 130101FE 		addi	sp,sp,-32
 112              		.cfi_def_cfa_offset 32
 113 00a4 233C1100 		sd	ra,24(sp)
 114 00a8 23388100 		sd	s0,16(sp)
 115 00ac 23349100 		sd	s1,8(sp)
 116              		.cfi_offset 1, -8
 117              		.cfi_offset 8, -16
 118              		.cfi_offset 9, -24
 119 00b0 13040102 		addi	s0,sp,32
 120              		.cfi_def_cfa 8, 0
GAS LISTING /tmp/cctogVpw.s 			page 4


 121              	.LBB4:
 122              	.LBB3:
  34:src/_sem.cpp  ****         _thread* t = this->blocked->removeFirst();
 123              		.loc 1 34 9 is_stmt 1
  34:src/_sem.cpp  ****         _thread* t = this->blocked->removeFirst();
 124              		.loc 1 34 48 is_stmt 0
 125 00b4 03358500 		ld	a0,8(a0)
 126              	.LVL11:
 127 00b8 97000000 		call	_ZN4List11removeFirstEv@plt
 127      E7800000 
 128              	.LVL12:
 129 00c0 93040500 		mv	s1,a0
 130              	.LVL13:
  35:src/_sem.cpp  ****             t->setBlocked(false);
 131              		.loc 1 35 9 is_stmt 1
 132 00c4 630E0500 		beqz	a0,.L9
  36:src/_sem.cpp  ****             Scheduler::put(t);
 133              		.loc 1 36 13
  36:src/_sem.cpp  ****             Scheduler::put(t);
 134              		.loc 1 36 26 is_stmt 0
 135 00c8 93050000 		li	a1,0
 136 00cc 97000000 		call	_ZN7_thread10setBlockedEb@plt
 136      E7800000 
 137              	.LVL14:
  37:src/_sem.cpp  ****         }
 138              		.loc 1 37 13 is_stmt 1
  37:src/_sem.cpp  ****         }
 139              		.loc 1 37 27 is_stmt 0
 140 00d4 13850400 		mv	a0,s1
 141 00d8 97000000 		call	_ZN9Scheduler3putEP7_thread@plt
 141      E7800000 
 142              	.LVL15:
 143              	.L9:
 144              	.LBE3:
 145              	.LBE4:
  40:src/_sem.cpp  **** }
 146              		.loc 1 40 5 is_stmt 1
 147              		.loc 1 41 1 is_stmt 0
 148 00e0 13050000 		li	a0,0
 149 00e4 83308101 		ld	ra,24(sp)
 150              		.cfi_restore 1
 151 00e8 03340101 		ld	s0,16(sp)
 152              		.cfi_restore 8
 153              		.cfi_def_cfa 2, 32
 154 00ec 83348100 		ld	s1,8(sp)
 155              		.cfi_restore 9
 156              	.LVL16:
 157 00f0 13010102 		addi	sp,sp,32
 158              		.cfi_def_cfa_offset 0
 159 00f4 67800000 		jr	ra
 160              		.cfi_endproc
 161              	.LFE16:
 163              		.align	2
 164              		.globl	_ZN4_semC2Ej
 166              	_ZN4_semC2Ej:
 167              	.LFB18:
  42:src/_sem.cpp  **** 
GAS LISTING /tmp/cctogVpw.s 			page 5


  43:src/_sem.cpp  **** _sem::_sem(unsigned int init) {
 168              		.loc 1 43 1 is_stmt 1
 169              		.cfi_startproc
 170              	.LVL17:
 171 00f8 130101FE 		addi	sp,sp,-32
 172              		.cfi_def_cfa_offset 32
 173 00fc 233C1100 		sd	ra,24(sp)
 174 0100 23388100 		sd	s0,16(sp)
 175 0104 23349100 		sd	s1,8(sp)
 176              		.cfi_offset 1, -8
 177              		.cfi_offset 8, -16
 178              		.cfi_offset 9, -24
 179 0108 13040102 		addi	s0,sp,32
 180              		.cfi_def_cfa 8, 0
 181 010c 93040500 		mv	s1,a0
 182              	.LBB5:
  44:src/_sem.cpp  ****     this->val = init;
 183              		.loc 1 44 5
 184              		.loc 1 44 15 is_stmt 0
 185 0110 2320B500 		sw	a1,0(a0)
  45:src/_sem.cpp  ****     this->blocked = (List*) (MemoryAllocator::mem_alloc(sizeof(List)));
 186              		.loc 1 45 5 is_stmt 1
 187              		.loc 1 45 56 is_stmt 0
 188 0114 13050001 		li	a0,16
 189              	.LVL18:
 190 0118 97000000 		call	_ZN15MemoryAllocator9mem_allocEm@plt
 190      E7800000 
 191              	.LVL19:
 192              		.loc 1 45 19
 193 0120 23B4A400 		sd	a0,8(s1)
  46:src/_sem.cpp  ****     this->blocked->init();
 194              		.loc 1 46 5 is_stmt 1
 195              		.loc 1 46 24 is_stmt 0
 196 0124 97000000 		call	_ZN4List4initEv@plt
 196      E7800000 
 197              	.LVL20:
 198              	.LBE5:
  47:src/_sem.cpp  **** }
 199              		.loc 1 47 1
 200 012c 83308101 		ld	ra,24(sp)
 201              		.cfi_restore 1
 202 0130 03340101 		ld	s0,16(sp)
 203              		.cfi_restore 8
 204              		.cfi_def_cfa 2, 32
 205 0134 83348100 		ld	s1,8(sp)
 206              		.cfi_restore 9
 207              	.LVL21:
 208 0138 13010102 		addi	sp,sp,32
 209              		.cfi_def_cfa_offset 0
 210 013c 67800000 		jr	ra
 211              		.cfi_endproc
 212              	.LFE18:
 214              		.globl	_ZN4_semC1Ej
 215              		.set	_ZN4_semC1Ej,_ZN4_semC2Ej
 216              		.align	2
 217              		.globl	_ZN4_semnwEm
 219              	_ZN4_semnwEm:
GAS LISTING /tmp/cctogVpw.s 			page 6


 220              	.LFB20:
  48:src/_sem.cpp  **** 
  49:src/_sem.cpp  **** void *_sem::operator new(size_t size) {
 221              		.loc 1 49 39 is_stmt 1
 222              		.cfi_startproc
 223              	.LVL22:
 224 0140 130101FF 		addi	sp,sp,-16
 225              		.cfi_def_cfa_offset 16
 226 0144 23341100 		sd	ra,8(sp)
 227 0148 23308100 		sd	s0,0(sp)
 228              		.cfi_offset 1, -8
 229              		.cfi_offset 8, -16
 230 014c 13040101 		addi	s0,sp,16
 231              		.cfi_def_cfa 8, 0
  50:src/_sem.cpp  ****     return MemoryAllocator::mem_alloc(size);
 232              		.loc 1 50 5
 233              		.loc 1 50 38 is_stmt 0
 234 0150 97000000 		call	_ZN15MemoryAllocator9mem_allocEm@plt
 234      E7800000 
 235              	.LVL23:
  51:src/_sem.cpp  **** }
 236              		.loc 1 51 1
 237 0158 83308100 		ld	ra,8(sp)
 238              		.cfi_restore 1
 239 015c 03340100 		ld	s0,0(sp)
 240              		.cfi_restore 8
 241              		.cfi_def_cfa 2, 16
 242 0160 13010101 		addi	sp,sp,16
 243              		.cfi_def_cfa_offset 0
 244 0164 67800000 		jr	ra
 245              		.cfi_endproc
 246              	.LFE20:
 248              		.align	2
 249              		.globl	_ZN4_semnaEm
 251              	_ZN4_semnaEm:
 252              	.LFB21:
  52:src/_sem.cpp  **** 
  53:src/_sem.cpp  **** void *_sem::operator new[](size_t size) {
 253              		.loc 1 53 41 is_stmt 1
 254              		.cfi_startproc
 255              	.LVL24:
 256 0168 130101FF 		addi	sp,sp,-16
 257              		.cfi_def_cfa_offset 16
 258 016c 23341100 		sd	ra,8(sp)
 259 0170 23308100 		sd	s0,0(sp)
 260              		.cfi_offset 1, -8
 261              		.cfi_offset 8, -16
 262 0174 13040101 		addi	s0,sp,16
 263              		.cfi_def_cfa 8, 0
  54:src/_sem.cpp  ****     return MemoryAllocator::mem_alloc(size);
 264              		.loc 1 54 5
 265              		.loc 1 54 38 is_stmt 0
 266 0178 97000000 		call	_ZN15MemoryAllocator9mem_allocEm@plt
 266      E7800000 
 267              	.LVL25:
  55:src/_sem.cpp  **** }
 268              		.loc 1 55 1
GAS LISTING /tmp/cctogVpw.s 			page 7


 269 0180 83308100 		ld	ra,8(sp)
 270              		.cfi_restore 1
 271 0184 03340100 		ld	s0,0(sp)
 272              		.cfi_restore 8
 273              		.cfi_def_cfa 2, 16
 274 0188 13010101 		addi	sp,sp,16
 275              		.cfi_def_cfa_offset 0
 276 018c 67800000 		jr	ra
 277              		.cfi_endproc
 278              	.LFE21:
 280              		.align	2
 281              		.globl	_ZN4_semdlEPv
 283              	_ZN4_semdlEPv:
 284              	.LFB22:
  56:src/_sem.cpp  **** 
  57:src/_sem.cpp  **** void _sem::operator delete(void *ptr) {
 285              		.loc 1 57 39 is_stmt 1
 286              		.cfi_startproc
 287              	.LVL26:
 288 0190 130101FF 		addi	sp,sp,-16
 289              		.cfi_def_cfa_offset 16
 290 0194 23341100 		sd	ra,8(sp)
 291 0198 23308100 		sd	s0,0(sp)
 292              		.cfi_offset 1, -8
 293              		.cfi_offset 8, -16
 294 019c 13040101 		addi	s0,sp,16
 295              		.cfi_def_cfa 8, 0
  58:src/_sem.cpp  ****     MemoryAllocator::mem_free(ptr);
 296              		.loc 1 58 5
 297              		.loc 1 58 30 is_stmt 0
 298 01a0 97000000 		call	_ZN15MemoryAllocator8mem_freeEPv@plt
 298      E7800000 
 299              	.LVL27:
  59:src/_sem.cpp  **** }
 300              		.loc 1 59 1
 301 01a8 83308100 		ld	ra,8(sp)
 302              		.cfi_restore 1
 303 01ac 03340100 		ld	s0,0(sp)
 304              		.cfi_restore 8
 305              		.cfi_def_cfa 2, 16
 306 01b0 13010101 		addi	sp,sp,16
 307              		.cfi_def_cfa_offset 0
 308 01b4 67800000 		jr	ra
 309              		.cfi_endproc
 310              	.LFE22:
 312              		.align	2
 313              		.globl	_ZN4_sem4openEj
 315              	_ZN4_sem4openEj:
 316              	.LFB13:
   7:src/_sem.cpp  ****     return new _sem(init);
 317              		.loc 1 7 37 is_stmt 1
 318              		.cfi_startproc
 319              		.cfi_personality 0x9b,DW.ref.__gxx_personality_v0
 320              		.cfi_lsda 0x1b,.LLSDA13
 321              	.LVL28:
 322 01b8 130101FE 		addi	sp,sp,-32
 323              		.cfi_def_cfa_offset 32
GAS LISTING /tmp/cctogVpw.s 			page 8


 324 01bc 233C1100 		sd	ra,24(sp)
 325 01c0 23388100 		sd	s0,16(sp)
 326 01c4 23349100 		sd	s1,8(sp)
 327 01c8 23302101 		sd	s2,0(sp)
 328              		.cfi_offset 1, -8
 329              		.cfi_offset 8, -16
 330              		.cfi_offset 9, -24
 331              		.cfi_offset 18, -32
 332 01cc 13040102 		addi	s0,sp,32
 333              		.cfi_def_cfa 8, 0
 334 01d0 13090500 		mv	s2,a0
   8:src/_sem.cpp  **** }
 335              		.loc 1 8 5
   8:src/_sem.cpp  **** }
 336              		.loc 1 8 25 is_stmt 0
 337 01d4 13050001 		li	a0,16
 338              	.LVL29:
 339              	.LEHB0:
 340 01d8 97000000 		call	_ZN4_semnwEm
 340      E7800000 
 341              	.LVL30:
 342              	.LEHE0:
 343 01e0 93040500 		mv	s1,a0
 344 01e4 93050900 		mv	a1,s2
 345              	.LEHB1:
 346 01e8 97000000 		call	_ZN4_semC1Ej
 346      E7800000 
 347              	.LVL31:
 348              	.LEHE1:
 349 01f0 6F000002 		j	.L28
 350              	.L25:
 351 01f4 13090500 		mv	s2,a0
 352 01f8 13850400 		mv	a0,s1
 353 01fc 97000000 		call	_ZN4_semdlEPv
 353      E7800000 
 354              	.LVL32:
 355 0204 13050900 		mv	a0,s2
 356              	.LEHB2:
 357 0208 97000000 		call	_Unwind_Resume@plt
 357      E7800000 
 358              	.LVL33:
 359              	.LEHE2:
 360              	.L28:
   9:src/_sem.cpp  **** 
 361              		.loc 1 9 1
 362 0210 13850400 		mv	a0,s1
 363 0214 83308101 		ld	ra,24(sp)
 364              		.cfi_restore 1
 365 0218 03340101 		ld	s0,16(sp)
 366              		.cfi_restore 8
 367              		.cfi_def_cfa 2, 32
 368 021c 83348100 		ld	s1,8(sp)
 369              		.cfi_restore 9
 370 0220 03390100 		ld	s2,0(sp)
 371              		.cfi_restore 18
 372 0224 13010102 		addi	sp,sp,32
 373              		.cfi_def_cfa_offset 0
GAS LISTING /tmp/cctogVpw.s 			page 9


 374 0228 67800000 		jr	ra
 375              		.cfi_endproc
 376              	.LFE13:
 377              		.globl	__gxx_personality_v0
 378              		.section	.gcc_except_table,"a",@progbits
 379              	.LLSDA13:
 380 0000 FF       		.byte	0xff
 381 0001 FF       		.byte	0xff
 382 0002 03       		.byte	0x3
 383 0003 27       		.byte	0x27
 384 0004 00000000 		.4byte	.LEHB0-.LFB13
 385 0008 00000000 		.4byte	.LEHE0-.LEHB0
 386 000c 00000000 		.4byte	0
 387 0010 00       		.byte	0
 388 0011 00000000 		.4byte	.LEHB1-.LFB13
 389 0015 00000000 		.4byte	.LEHE1-.LEHB1
 390 0019 00000000 		.4byte	.L25-.LFB13
 391 001d 00       		.byte	0
 392 001e 00000000 		.4byte	.LEHB2-.LFB13
 393 0022 00000000 		.4byte	.LEHE2-.LEHB2
 394 0026 00000000 		.4byte	0
 395 002a 00       		.byte	0
 396              		.text
 398              		.align	2
 399              		.globl	_ZN4_semdaEPv
 401              	_ZN4_semdaEPv:
 402              	.LFB23:
  60:src/_sem.cpp  **** 
  61:src/_sem.cpp  **** void _sem::operator delete[](void *ptr) {
 403              		.loc 1 61 41 is_stmt 1
 404              		.cfi_startproc
 405              	.LVL34:
 406 022c 130101FF 		addi	sp,sp,-16
 407              		.cfi_def_cfa_offset 16
 408 0230 23341100 		sd	ra,8(sp)
 409 0234 23308100 		sd	s0,0(sp)
 410              		.cfi_offset 1, -8
 411              		.cfi_offset 8, -16
 412 0238 13040101 		addi	s0,sp,16
 413              		.cfi_def_cfa 8, 0
  62:src/_sem.cpp  ****     MemoryAllocator::mem_free(ptr);
 414              		.loc 1 62 5
 415              		.loc 1 62 30 is_stmt 0
 416 023c 97000000 		call	_ZN15MemoryAllocator8mem_freeEPv@plt
 416      E7800000 
 417              	.LVL35:
  63:src/_sem.cpp  **** }
 418              		.loc 1 63 1
 419 0244 83308100 		ld	ra,8(sp)
 420              		.cfi_restore 1
 421 0248 03340100 		ld	s0,0(sp)
 422              		.cfi_restore 8
 423              		.cfi_def_cfa 2, 16
 424 024c 13010101 		addi	sp,sp,16
 425              		.cfi_def_cfa_offset 0
 426 0250 67800000 		jr	ra
 427              		.cfi_endproc
GAS LISTING /tmp/cctogVpw.s 			page 10


 428              	.LFE23:
 430              		.align	2
 431              		.globl	_ZN4_semD2Ev
 433              	_ZN4_semD2Ev:
 434              	.LFB25:
  64:src/_sem.cpp  **** 
  65:src/_sem.cpp  **** _sem::~_sem() {
 435              		.loc 1 65 1 is_stmt 1
 436              		.cfi_startproc
 437              		.cfi_personality 0x9b,DW.ref.__gxx_personality_v0
 438              		.cfi_lsda 0x1b,.LLSDA25
 439              	.LVL36:
 440 0254 130101FF 		addi	sp,sp,-16
 441              		.cfi_def_cfa_offset 16
 442 0258 23341100 		sd	ra,8(sp)
 443 025c 23308100 		sd	s0,0(sp)
 444              		.cfi_offset 1, -8
 445              		.cfi_offset 8, -16
 446 0260 13040101 		addi	s0,sp,16
 447              		.cfi_def_cfa 8, 0
 448              	.LBB6:
  66:src/_sem.cpp  ****     MemoryAllocator::mem_free(this);
 449              		.loc 1 66 5
 450              		.loc 1 66 30 is_stmt 0
 451 0264 97000000 		call	_ZN15MemoryAllocator8mem_freeEPv@plt
 451      E7800000 
 452              	.LVL37:
 453              	.LBE6:
  67:src/_sem.cpp  **** }
 454              		.loc 1 67 1
 455 026c 83308100 		ld	ra,8(sp)
 456              		.cfi_restore 1
 457 0270 03340100 		ld	s0,0(sp)
 458              		.cfi_restore 8
 459              		.cfi_def_cfa 2, 16
 460 0274 13010101 		addi	sp,sp,16
 461              		.cfi_def_cfa_offset 0
 462 0278 67800000 		jr	ra
 463              		.cfi_endproc
 464              	.LFE25:
 465              		.section	.gcc_except_table
 466              	.LLSDA25:
 467 002b FF       		.byte	0xff
 468 002c FF       		.byte	0xff
 469 002d 03       		.byte	0x3
 470 002e 00       		.byte	0
 471              		.text
 473              		.globl	_ZN4_semD1Ev
 474              		.set	_ZN4_semD1Ev,_ZN4_semD2Ev
 475              		.align	2
 476              		.globl	_ZN4_sem5closeEv
 478              	_ZN4_sem5closeEv:
 479              	.LFB14:
  11:src/_sem.cpp  ****     _thread* t = this->blocked->removeFirst();
 480              		.loc 1 11 19 is_stmt 1
 481              		.cfi_startproc
 482              	.LVL38:
GAS LISTING /tmp/cctogVpw.s 			page 11


 483 027c 130101FE 		addi	sp,sp,-32
 484              		.cfi_def_cfa_offset 32
 485 0280 233C1100 		sd	ra,24(sp)
 486 0284 23388100 		sd	s0,16(sp)
 487 0288 23349100 		sd	s1,8(sp)
 488 028c 23302101 		sd	s2,0(sp)
 489              		.cfi_offset 1, -8
 490              		.cfi_offset 8, -16
 491              		.cfi_offset 9, -24
 492              		.cfi_offset 18, -32
 493 0290 13040102 		addi	s0,sp,32
 494              		.cfi_def_cfa 8, 0
 495 0294 13090500 		mv	s2,a0
  12:src/_sem.cpp  ****     while(t) {
 496              		.loc 1 12 5
  12:src/_sem.cpp  ****     while(t) {
 497              		.loc 1 12 44 is_stmt 0
 498 0298 03358500 		ld	a0,8(a0)
 499              	.LVL39:
 500 029c 97000000 		call	_ZN4List11removeFirstEv@plt
 500      E7800000 
 501              	.LVL40:
 502 02a4 93040500 		mv	s1,a0
 503              	.LVL41:
 504              	.L35:
  13:src/_sem.cpp  ****         t->setBlocked(false);
 505              		.loc 1 13 5 is_stmt 1
  13:src/_sem.cpp  ****         t->setBlocked(false);
 506              		.loc 1 13 11
 507 02a8 638A0402 		beqz	s1,.L34
  14:src/_sem.cpp  ****         Scheduler::put(t);
 508              		.loc 1 14 9
  14:src/_sem.cpp  ****         Scheduler::put(t);
 509              		.loc 1 14 22 is_stmt 0
 510 02ac 93050000 		li	a1,0
 511 02b0 13850400 		mv	a0,s1
 512 02b4 97000000 		call	_ZN7_thread10setBlockedEb@plt
 512      E7800000 
 513              	.LVL42:
  15:src/_sem.cpp  ****         t = this->blocked->removeFirst();
 514              		.loc 1 15 9 is_stmt 1
  15:src/_sem.cpp  ****         t = this->blocked->removeFirst();
 515              		.loc 1 15 23 is_stmt 0
 516 02bc 13850400 		mv	a0,s1
 517 02c0 97000000 		call	_ZN9Scheduler3putEP7_thread@plt
 517      E7800000 
 518              	.LVL43:
  16:src/_sem.cpp  ****     }
 519              		.loc 1 16 9 is_stmt 1
  16:src/_sem.cpp  ****     }
 520              		.loc 1 16 39 is_stmt 0
 521 02c8 03358900 		ld	a0,8(s2)
 522 02cc 97000000 		call	_ZN4List11removeFirstEv@plt
 522      E7800000 
 523              	.LVL44:
 524 02d4 93040500 		mv	s1,a0
 525              	.LVL45:
GAS LISTING /tmp/cctogVpw.s 			page 12


  13:src/_sem.cpp  ****         t->setBlocked(false);
 526              		.loc 1 13 5
 527 02d8 6FF01FFD 		j	.L35
 528              	.L34:
  18:src/_sem.cpp  ****     delete this;
 529              		.loc 1 18 5 is_stmt 1
  18:src/_sem.cpp  ****     delete this;
 530              		.loc 1 18 30 is_stmt 0
 531 02dc 03358900 		ld	a0,8(s2)
 532 02e0 97000000 		call	_ZN15MemoryAllocator8mem_freeEPv@plt
 532      E7800000 
 533              	.LVL46:
  19:src/_sem.cpp  ****     return 0;
 534              		.loc 1 19 5 is_stmt 1
  19:src/_sem.cpp  ****     return 0;
 535              		.loc 1 19 12 is_stmt 0
 536 02e8 13050900 		mv	a0,s2
 537 02ec 97000000 		call	_ZN4_semD1Ev
 537      E7800000 
 538              	.LVL47:
 539 02f4 13050900 		mv	a0,s2
 540 02f8 97000000 		call	_ZN4_semdlEPv
 540      E7800000 
 541              	.LVL48:
  20:src/_sem.cpp  **** }
 542              		.loc 1 20 5 is_stmt 1
  21:src/_sem.cpp  **** 
 543              		.loc 1 21 1 is_stmt 0
 544 0300 13050000 		li	a0,0
 545 0304 83308101 		ld	ra,24(sp)
 546              		.cfi_restore 1
 547 0308 03340101 		ld	s0,16(sp)
 548              		.cfi_restore 8
 549              		.cfi_def_cfa 2, 32
 550 030c 83348100 		ld	s1,8(sp)
 551              		.cfi_restore 9
 552              	.LVL49:
 553 0310 03390100 		ld	s2,0(sp)
 554              		.cfi_restore 18
 555              	.LVL50:
 556 0314 13010102 		addi	sp,sp,32
 557              		.cfi_def_cfa_offset 0
 558 0318 67800000 		jr	ra
 559              		.cfi_endproc
 560              	.LFE14:
 562              	.Letext0:
 563              		.file 2 "src/../h/../h/../lib/hw.h"
 564              		.file 3 "src/../h/../h/../h/MemDesc.hpp"
 565              		.file 4 "src/../h/../h/MemoryAllocator.hpp"
 566              		.file 5 "src/../h/list.hpp"
 567              		.file 6 "src/../h/_thread.hpp"
 568              		.file 7 "src/../h/_sem.hpp"
 569              		.file 8 "src/../h/../h/Scheduler.hpp"
 570              		.file 9 "src/../h/syscall_c.hpp"
 3495              		.align	3
 3498              	DW.ref.__gxx_personality_v0:
 3499 0000 00000000 		.dword	__gxx_personality_v0
GAS LISTING /tmp/cctogVpw.s 			page 13


 3499      00000000 
 3500              		.ident	"GCC: (Ubuntu 9.4.0-1ubuntu1~20.04) 9.4.0"
 3501              		.section	.note.GNU-stack,"",@progbits
GAS LISTING /tmp/cctogVpw.s 			page 14

