GAS LISTING /tmp/cc91wra3.s 			page 1


   1              		.file	"_thread.cpp"
   2              		.option pic
   3              		.option norelax
   4              		.text
   5              	.Ltext0:
   6              		.align	2
   7              		.globl	_ZN7_thread5startEv
   9              	_ZN7_thread5startEv:
  10              	.LFB30:
  11              		.file 1 "src/_thread.cpp"
   1:src/_thread.cpp **** //
   2:src/_thread.cpp **** // Created by Danilo on 5/30/23.
   3:src/_thread.cpp **** // Preuzeto sa snimka iz vezbi 7.
   4:src/_thread.cpp **** //
   5:src/_thread.cpp **** 
   6:src/_thread.cpp **** #include "../h/_thread.hpp"
   7:src/_thread.cpp **** #include "../h/riscv.hpp"
   8:src/_thread.cpp **** #include "../h/MemoryAllocator.hpp"
   9:src/_thread.cpp **** #include "../h/printing.hpp"
  10:src/_thread.cpp **** 
  11:src/_thread.cpp **** _thread* _thread::running = nullptr;
  12:src/_thread.cpp **** 
  13:src/_thread.cpp **** _thread *_thread::createProcess(Body body, void* args){
  14:src/_thread.cpp ****     return new _thread(body, args);
  15:src/_thread.cpp **** }
  16:src/_thread.cpp **** 
  17:src/_thread.cpp **** int _thread::start() {
  12              		.loc 1 17 22
  13              		.cfi_startproc
  14              	.LVL0:
  18:src/_thread.cpp ****     if (!this->hasStarted()) {
  15              		.loc 1 18 5
  16              	.LBB10:
  17              	.LBB11:
  18              		.file 2 "src/../h/_thread.hpp"
   1:src/../h/_thread.hpp **** //
   2:src/../h/_thread.hpp **** // Created by Danilo on 5/29/23.
   3:src/../h/_thread.hpp **** // Preuzeto sa snimka iz vezbi 7.
   4:src/../h/_thread.hpp **** //
   5:src/../h/_thread.hpp **** 
   6:src/../h/_thread.hpp **** #ifndef PROJECT_BASE_V1_1__THREAD_HPP
   7:src/../h/_thread.hpp **** #define PROJECT_BASE_V1_1__THREAD_HPP
   8:src/../h/_thread.hpp **** 
   9:src/../h/_thread.hpp **** #include "../lib/hw.h"
  10:src/../h/_thread.hpp **** #include "../h/Scheduler.hpp"
  11:src/../h/_thread.hpp **** 
  12:src/../h/_thread.hpp **** class _thread {
  13:src/../h/_thread.hpp **** public:
  14:src/../h/_thread.hpp **** 
  15:src/../h/_thread.hpp ****     ~_thread() {
  16:src/../h/_thread.hpp ****         delete[] stack;
  17:src/../h/_thread.hpp ****     }
  18:src/../h/_thread.hpp ****     bool isFinished() const {
  19:src/../h/_thread.hpp ****         return finished;
  20:src/../h/_thread.hpp ****     }
  21:src/../h/_thread.hpp **** 
  22:src/../h/_thread.hpp ****     void setFinished(bool f) {
GAS LISTING /tmp/cc91wra3.s 			page 2


  23:src/../h/_thread.hpp ****         _thread::finished = f;
  24:src/../h/_thread.hpp ****     }
  25:src/../h/_thread.hpp **** 
  26:src/../h/_thread.hpp ****     bool hasStarted() const {
  27:src/../h/_thread.hpp ****         return started;
  19              		.loc 2 27 9
  20              		.loc 2 27 16 is_stmt 0
  21 0000 83479502 		lbu	a5,41(a0)
  22              	.LVL1:
  23              	.LBE11:
  24              	.LBE10:
  25              		.loc 1 18 5
  26 0004 639C0702 		bnez	a5,.L3
  17:src/_thread.cpp ****     if (!this->hasStarted()) {
  27              		.loc 1 17 22
  28 0008 130101FF 		addi	sp,sp,-16
  29              		.cfi_def_cfa_offset 16
  30 000c 23341100 		sd	ra,8(sp)
  31 0010 23308100 		sd	s0,0(sp)
  32              		.cfi_offset 1, -8
  33              		.cfi_offset 8, -16
  34 0014 13040101 		addi	s0,sp,16
  35              		.cfi_def_cfa 8, 0
  19:src/_thread.cpp ****         this->setStarted(true);
  36              		.loc 1 19 9 is_stmt 1
  37              	.LVL2:
  38              	.LBB12:
  39              	.LBB13:
  28:src/../h/_thread.hpp ****     }
  29:src/../h/_thread.hpp **** 
  30:src/../h/_thread.hpp ****     void setStarted(bool s) {
  31:src/../h/_thread.hpp ****         _thread::started = s;
  40              		.loc 2 31 9
  41              		.loc 2 31 26 is_stmt 0
  42 0018 93071000 		li	a5,1
  43 001c A304F502 		sb	a5,41(a0)
  44              	.LVL3:
  45              	.LBE13:
  46              	.LBE12:
  20:src/_thread.cpp ****         Scheduler::put(this);
  47              		.loc 1 20 9 is_stmt 1
  48              		.loc 1 20 23 is_stmt 0
  49 0020 97000000 		call	_ZN9Scheduler3putEP7_thread@plt
  49      E7800000 
  50              	.LVL4:
  21:src/_thread.cpp ****         return 0;
  51              		.loc 1 21 9 is_stmt 1
  52              		.loc 1 21 16 is_stmt 0
  53 0028 13050000 		li	a0,0
  22:src/_thread.cpp ****     }
  23:src/_thread.cpp ****     return -1;
  24:src/_thread.cpp **** }
  54              		.loc 1 24 1
  55 002c 83308100 		ld	ra,8(sp)
  56              		.cfi_restore 1
  57 0030 03340100 		ld	s0,0(sp)
  58              		.cfi_restore 8
GAS LISTING /tmp/cc91wra3.s 			page 3


  59              		.cfi_def_cfa 2, 16
  60 0034 13010101 		addi	sp,sp,16
  61              		.cfi_def_cfa_offset 0
  62 0038 67800000 		jr	ra
  63              	.LVL5:
  64              	.L3:
  23:src/_thread.cpp **** }
  65              		.loc 1 23 13
  66 003c 1305F0FF 		li	a0,-1
  67              	.LVL6:
  68              		.loc 1 24 1
  69 0040 67800000 		ret
  70              		.cfi_endproc
  71              	.LFE30:
  73              		.align	2
  74              		.globl	_ZN7_thread4exitEv
  76              	_ZN7_thread4exitEv:
  77              	.LFB31:
  25:src/_thread.cpp **** 
  26:src/_thread.cpp **** int _thread::exit() {
  78              		.loc 1 26 21 is_stmt 1
  79              		.cfi_startproc
  80 0044 130101FF 		addi	sp,sp,-16
  81              		.cfi_def_cfa_offset 16
  82 0048 23341100 		sd	ra,8(sp)
  83 004c 23308100 		sd	s0,0(sp)
  84              		.cfi_offset 1, -8
  85              		.cfi_offset 8, -16
  86 0050 13040101 		addi	s0,sp,16
  87              		.cfi_def_cfa 8, 0
  27:src/_thread.cpp ****     running->setFinished(true);
  88              		.loc 1 27 5
  89              	.LVL7:
  90              	.LBB14:
  91              	.LBB15:
  23:src/../h/_thread.hpp ****     }
  92              		.loc 2 23 9
  23:src/../h/_thread.hpp ****     }
  93              		.loc 2 23 27 is_stmt 0
  94 0054 97070000 		ld	a5,.LANCHOR0
  94      83B70700 
  95 005c 13071000 		li	a4,1
  96 0060 2384E702 		sb	a4,40(a5)
  97              	.LVL8:
  98              	.LBE15:
  99              	.LBE14:
  28:src/_thread.cpp ****     thread_dispatch();
 100              		.loc 1 28 5 is_stmt 1
 101              		.loc 1 28 20 is_stmt 0
 102 0064 97000000 		call	_Z15thread_dispatchv@plt
 102      E7800000 
 103              	.LVL9:
  29:src/_thread.cpp ****     return 0;
 104              		.loc 1 29 5 is_stmt 1
  30:src/_thread.cpp **** }
 105              		.loc 1 30 1 is_stmt 0
 106 006c 13050000 		li	a0,0
GAS LISTING /tmp/cc91wra3.s 			page 4


 107 0070 83308100 		ld	ra,8(sp)
 108              		.cfi_restore 1
 109 0074 03340100 		ld	s0,0(sp)
 110              		.cfi_restore 8
 111              		.cfi_def_cfa 2, 16
 112 0078 13010101 		addi	sp,sp,16
 113              		.cfi_def_cfa_offset 0
 114 007c 67800000 		jr	ra
 115              		.cfi_endproc
 116              	.LFE31:
 118              		.align	2
 119              		.globl	_ZN7_thread13threadWrapperEv
 121              	_ZN7_thread13threadWrapperEv:
 122              	.LFB34:
  31:src/_thread.cpp **** 
  32:src/_thread.cpp **** void _thread::yield() {
  33:src/_thread.cpp ****     dispatch();
  34:src/_thread.cpp **** }
  35:src/_thread.cpp **** 
  36:src/_thread.cpp **** void _thread::dispatch() {
  37:src/_thread.cpp ****     _thread *old = running;
  38:src/_thread.cpp ****     if (!old->finished && !old->blocked) {
  39:src/_thread.cpp ****         Scheduler::put(old);
  40:src/_thread.cpp ****     }
  41:src/_thread.cpp ****     running = Scheduler::get();
  42:src/_thread.cpp ****     abiInvoker(0);
  43:src/_thread.cpp ****     _thread::contextSwitch(&old->context, &running->context);
  44:src/_thread.cpp **** }
  45:src/_thread.cpp **** 
  46:src/_thread.cpp **** void _thread::threadWrapper() {
 123              		.loc 1 46 31 is_stmt 1
 124              		.cfi_startproc
 125 0080 130101FF 		addi	sp,sp,-16
 126              		.cfi_def_cfa_offset 16
 127 0084 23341100 		sd	ra,8(sp)
 128 0088 23308100 		sd	s0,0(sp)
 129              		.cfi_offset 1, -8
 130              		.cfi_offset 8, -16
 131 008c 13040101 		addi	s0,sp,16
 132              		.cfi_def_cfa 8, 0
  47:src/_thread.cpp ****     Riscv::popSppSpie();
 133              		.loc 1 47 5
 134              		.loc 1 47 22 is_stmt 0
 135 0090 97000000 		call	_ZN5Riscv10popSppSpieEv@plt
 135      E7800000 
 136              	.LVL10:
  48:src/_thread.cpp ****     running->body(running->arg);
 137              		.loc 1 48 5 is_stmt 1
 138              		.loc 1 48 14 is_stmt 0
 139 0098 97070000 		ld	a5,.LANCHOR0
 139      83B70700 
 140 00a0 03B70700 		ld	a4,0(a5)
 141              		.loc 1 48 18
 142 00a4 03B58700 		ld	a0,8(a5)
 143 00a8 E7000700 		jalr	a4
 144              	.LVL11:
  49:src/_thread.cpp ****     _thread::exit();
GAS LISTING /tmp/cc91wra3.s 			page 5


 145              		.loc 1 49 5 is_stmt 1
 146              		.loc 1 49 18 is_stmt 0
 147 00ac 97000000 		call	_ZN7_thread4exitEv
 147      E7800000 
 148              	.LVL12:
  50:src/_thread.cpp **** }
 149              		.loc 1 50 1
 150 00b4 83308100 		ld	ra,8(sp)
 151              		.cfi_restore 1
 152 00b8 03340100 		ld	s0,0(sp)
 153              		.cfi_restore 8
 154              		.cfi_def_cfa 2, 16
 155 00bc 13010101 		addi	sp,sp,16
 156              		.cfi_def_cfa_offset 0
 157 00c0 67800000 		jr	ra
 158              		.cfi_endproc
 159              	.LFE34:
 161              		.align	2
 162              		.globl	_ZN7_thread8dispatchEv
 164              	_ZN7_thread8dispatchEv:
 165              	.LFB33:
  36:src/_thread.cpp ****     _thread *old = running;
 166              		.loc 1 36 26 is_stmt 1
 167              		.cfi_startproc
 168 00c4 130101FE 		addi	sp,sp,-32
 169              		.cfi_def_cfa_offset 32
 170 00c8 233C1100 		sd	ra,24(sp)
 171 00cc 23388100 		sd	s0,16(sp)
 172 00d0 23349100 		sd	s1,8(sp)
 173 00d4 23302101 		sd	s2,0(sp)
 174              		.cfi_offset 1, -8
 175              		.cfi_offset 8, -16
 176              		.cfi_offset 9, -24
 177              		.cfi_offset 18, -32
 178 00d8 13040102 		addi	s0,sp,32
 179              		.cfi_def_cfa 8, 0
  37:src/_thread.cpp ****     if (!old->finished && !old->blocked) {
 180              		.loc 1 37 5
  37:src/_thread.cpp ****     if (!old->finished && !old->blocked) {
 181              		.loc 1 37 14 is_stmt 0
 182 00dc 97040000 		ld	s1,.LANCHOR0
 182      83B40400 
 183              	.LVL13:
  38:src/_thread.cpp ****         Scheduler::put(old);
 184              		.loc 1 38 5 is_stmt 1
  38:src/_thread.cpp ****         Scheduler::put(old);
 185              		.loc 1 38 15 is_stmt 0
 186 00e4 83C78402 		lbu	a5,40(s1)
  38:src/_thread.cpp ****         Scheduler::put(old);
 187              		.loc 1 38 5
 188 00e8 63960700 		bnez	a5,.L13
  38:src/_thread.cpp ****         Scheduler::put(old);
 189              		.loc 1 38 33 discriminator 1
 190 00ec 83C7B402 		lbu	a5,43(s1)
  38:src/_thread.cpp ****         Scheduler::put(old);
 191              		.loc 1 38 24 discriminator 1
 192 00f0 63880704 		beqz	a5,.L15
GAS LISTING /tmp/cc91wra3.s 			page 6


 193              	.L13:
  41:src/_thread.cpp ****     abiInvoker(0);
 194              		.loc 1 41 5 is_stmt 1
  41:src/_thread.cpp ****     abiInvoker(0);
 195              		.loc 1 41 29 is_stmt 0
 196 00f4 97000000 		call	_ZN9Scheduler3getEv@plt
 196      E7800000 
 197              	.LVL14:
  41:src/_thread.cpp ****     abiInvoker(0);
 198              		.loc 1 41 13
 199 00fc 17090000 		lla	s2,.LANCHOR0
 199      13090900 
 200 0104 2330A900 		sd	a0,0(s2)
  42:src/_thread.cpp ****     _thread::contextSwitch(&old->context, &running->context);
 201              		.loc 1 42 5 is_stmt 1
  42:src/_thread.cpp ****     _thread::contextSwitch(&old->context, &running->context);
 202              		.loc 1 42 15 is_stmt 0
 203 0108 13050000 		li	a0,0
 204 010c 97000000 		call	_Z10abiInvokeriz@plt
 204      E7800000 
 205              	.LVL15:
  43:src/_thread.cpp **** }
 206              		.loc 1 43 5 is_stmt 1
  43:src/_thread.cpp **** }
 207              		.loc 1 43 53 is_stmt 0
 208 0114 83350900 		ld	a1,0(s2)
  43:src/_thread.cpp **** }
 209              		.loc 1 43 27
 210 0118 93858501 		addi	a1,a1,24
 211 011c 13858401 		addi	a0,s1,24
 212 0120 97000000 		call	_ZN7_thread13contextSwitchEPNS_7ContextES1_@plt
 212      E7800000 
 213              	.LVL16:
  44:src/_thread.cpp **** 
 214              		.loc 1 44 1
 215 0128 83308101 		ld	ra,24(sp)
 216              		.cfi_remember_state
 217              		.cfi_restore 1
 218 012c 03340101 		ld	s0,16(sp)
 219              		.cfi_restore 8
 220              		.cfi_def_cfa 2, 32
 221 0130 83348100 		ld	s1,8(sp)
 222              		.cfi_restore 9
 223              	.LVL17:
 224 0134 03390100 		ld	s2,0(sp)
 225              		.cfi_restore 18
 226 0138 13010102 		addi	sp,sp,32
 227              		.cfi_def_cfa_offset 0
 228 013c 67800000 		jr	ra
 229              	.LVL18:
 230              	.L15:
 231              		.cfi_restore_state
  39:src/_thread.cpp ****     }
 232              		.loc 1 39 9 is_stmt 1
  39:src/_thread.cpp ****     }
 233              		.loc 1 39 23 is_stmt 0
 234 0140 13850400 		mv	a0,s1
GAS LISTING /tmp/cc91wra3.s 			page 7


 235 0144 97000000 		call	_ZN9Scheduler3putEP7_thread@plt
 235      E7800000 
 236              	.LVL19:
 237 014c 6FF09FFA 		j	.L13
 238              		.cfi_endproc
 239              	.LFE33:
 241              		.align	2
 242              		.globl	_ZN7_thread5yieldEv
 244              	_ZN7_thread5yieldEv:
 245              	.LFB32:
  32:src/_thread.cpp ****     dispatch();
 246              		.loc 1 32 23 is_stmt 1
 247              		.cfi_startproc
 248 0150 130101FF 		addi	sp,sp,-16
 249              		.cfi_def_cfa_offset 16
 250 0154 23341100 		sd	ra,8(sp)
 251 0158 23308100 		sd	s0,0(sp)
 252              		.cfi_offset 1, -8
 253              		.cfi_offset 8, -16
 254 015c 13040101 		addi	s0,sp,16
 255              		.cfi_def_cfa 8, 0
  33:src/_thread.cpp **** }
 256              		.loc 1 33 5
  33:src/_thread.cpp **** }
 257              		.loc 1 33 13 is_stmt 0
 258 0160 97000000 		call	_ZN7_thread8dispatchEv
 258      E7800000 
 259              	.LVL20:
  34:src/_thread.cpp **** 
 260              		.loc 1 34 1
 261 0168 83308100 		ld	ra,8(sp)
 262              		.cfi_restore 1
 263 016c 03340100 		ld	s0,0(sp)
 264              		.cfi_restore 8
 265              		.cfi_def_cfa 2, 16
 266 0170 13010101 		addi	sp,sp,16
 267              		.cfi_def_cfa_offset 0
 268 0174 67800000 		jr	ra
 269              		.cfi_endproc
 270              	.LFE32:
 272              		.align	2
 273              		.globl	_ZN7_threadnwEm
 275              	_ZN7_threadnwEm:
 276              	.LFB35:
  51:src/_thread.cpp **** 
  52:src/_thread.cpp **** void *_thread::operator new(size_t size) {
 277              		.loc 1 52 42 is_stmt 1
 278              		.cfi_startproc
 279              	.LVL21:
 280 0178 130101FF 		addi	sp,sp,-16
 281              		.cfi_def_cfa_offset 16
 282 017c 23341100 		sd	ra,8(sp)
 283 0180 23308100 		sd	s0,0(sp)
 284              		.cfi_offset 1, -8
 285              		.cfi_offset 8, -16
 286 0184 13040101 		addi	s0,sp,16
 287              		.cfi_def_cfa 8, 0
GAS LISTING /tmp/cc91wra3.s 			page 8


  53:src/_thread.cpp ****     return MemoryAllocator::mem_alloc(size);
 288              		.loc 1 53 5
 289              		.loc 1 53 38 is_stmt 0
 290 0188 97000000 		call	_ZN15MemoryAllocator9mem_allocEm@plt
 290      E7800000 
 291              	.LVL22:
  54:src/_thread.cpp **** }
 292              		.loc 1 54 1
 293 0190 83308100 		ld	ra,8(sp)
 294              		.cfi_restore 1
 295 0194 03340100 		ld	s0,0(sp)
 296              		.cfi_restore 8
 297              		.cfi_def_cfa 2, 16
 298 0198 13010101 		addi	sp,sp,16
 299              		.cfi_def_cfa_offset 0
 300 019c 67800000 		jr	ra
 301              		.cfi_endproc
 302              	.LFE35:
 304              		.align	2
 305              		.globl	_ZN7_threadnaEm
 307              	_ZN7_threadnaEm:
 308              	.LFB36:
  55:src/_thread.cpp **** 
  56:src/_thread.cpp **** void *_thread::operator new[](size_t size) {
 309              		.loc 1 56 44 is_stmt 1
 310              		.cfi_startproc
 311              	.LVL23:
 312 01a0 130101FF 		addi	sp,sp,-16
 313              		.cfi_def_cfa_offset 16
 314 01a4 23341100 		sd	ra,8(sp)
 315 01a8 23308100 		sd	s0,0(sp)
 316              		.cfi_offset 1, -8
 317              		.cfi_offset 8, -16
 318 01ac 13040101 		addi	s0,sp,16
 319              		.cfi_def_cfa 8, 0
  57:src/_thread.cpp ****     return MemoryAllocator::mem_alloc(size);
 320              		.loc 1 57 5
 321              		.loc 1 57 38 is_stmt 0
 322 01b0 97000000 		call	_ZN15MemoryAllocator9mem_allocEm@plt
 322      E7800000 
 323              	.LVL24:
  58:src/_thread.cpp **** }
 324              		.loc 1 58 1
 325 01b8 83308100 		ld	ra,8(sp)
 326              		.cfi_restore 1
 327 01bc 03340100 		ld	s0,0(sp)
 328              		.cfi_restore 8
 329              		.cfi_def_cfa 2, 16
 330 01c0 13010101 		addi	sp,sp,16
 331              		.cfi_def_cfa_offset 0
 332 01c4 67800000 		jr	ra
 333              		.cfi_endproc
 334              	.LFE36:
 336              		.align	2
 337              		.globl	_ZN7_threaddlEPv
 339              	_ZN7_threaddlEPv:
 340              	.LFB37:
GAS LISTING /tmp/cc91wra3.s 			page 9


  59:src/_thread.cpp **** 
  60:src/_thread.cpp **** void _thread::operator delete(void *ptr) {
 341              		.loc 1 60 42 is_stmt 1
 342              		.cfi_startproc
 343              	.LVL25:
 344 01c8 130101FF 		addi	sp,sp,-16
 345              		.cfi_def_cfa_offset 16
 346 01cc 23341100 		sd	ra,8(sp)
 347 01d0 23308100 		sd	s0,0(sp)
 348              		.cfi_offset 1, -8
 349              		.cfi_offset 8, -16
 350 01d4 13040101 		addi	s0,sp,16
 351              		.cfi_def_cfa 8, 0
  61:src/_thread.cpp ****     MemoryAllocator::mem_free(ptr);
 352              		.loc 1 61 5
 353              		.loc 1 61 30 is_stmt 0
 354 01d8 97000000 		call	_ZN15MemoryAllocator8mem_freeEPv@plt
 354      E7800000 
 355              	.LVL26:
  62:src/_thread.cpp **** }
 356              		.loc 1 62 1
 357 01e0 83308100 		ld	ra,8(sp)
 358              		.cfi_restore 1
 359 01e4 03340100 		ld	s0,0(sp)
 360              		.cfi_restore 8
 361              		.cfi_def_cfa 2, 16
 362 01e8 13010101 		addi	sp,sp,16
 363              		.cfi_def_cfa_offset 0
 364 01ec 67800000 		jr	ra
 365              		.cfi_endproc
 366              	.LFE37:
 368              		.align	2
 369              		.globl	_ZN7_threaddaEPv
 371              	_ZN7_threaddaEPv:
 372              	.LFB38:
  63:src/_thread.cpp **** 
  64:src/_thread.cpp **** void _thread::operator delete[](void *ptr) {
 373              		.loc 1 64 44 is_stmt 1
 374              		.cfi_startproc
 375              	.LVL27:
 376 01f0 130101FF 		addi	sp,sp,-16
 377              		.cfi_def_cfa_offset 16
 378 01f4 23341100 		sd	ra,8(sp)
 379 01f8 23308100 		sd	s0,0(sp)
 380              		.cfi_offset 1, -8
 381              		.cfi_offset 8, -16
 382 01fc 13040101 		addi	s0,sp,16
 383              		.cfi_def_cfa 8, 0
  65:src/_thread.cpp ****     MemoryAllocator::mem_free(ptr);
 384              		.loc 1 65 5
 385              		.loc 1 65 30 is_stmt 0
 386 0200 97000000 		call	_ZN15MemoryAllocator8mem_freeEPv@plt
 386      E7800000 
 387              	.LVL28:
  66:src/_thread.cpp **** }
 388              		.loc 1 66 1
 389 0208 83308100 		ld	ra,8(sp)
GAS LISTING /tmp/cc91wra3.s 			page 10


 390              		.cfi_restore 1
 391 020c 03340100 		ld	s0,0(sp)
 392              		.cfi_restore 8
 393              		.cfi_def_cfa 2, 16
 394 0210 13010101 		addi	sp,sp,16
 395              		.cfi_def_cfa_offset 0
 396 0214 67800000 		jr	ra
 397              		.cfi_endproc
 398              	.LFE38:
 400              		.align	2
 401              		.globl	_ZN7_threadC2EPFvPvES0_
 403              	_ZN7_threadC2EPFvPvES0_:
 404              	.LFB40:
  67:src/_thread.cpp **** 
  68:src/_thread.cpp **** _thread::_thread(_thread::Body body, void *arg)
 405              		.loc 1 68 1 is_stmt 1
 406              		.cfi_startproc
 407              	.LVL29:
 408 0218 130101FE 		addi	sp,sp,-32
 409              		.cfi_def_cfa_offset 32
 410 021c 233C1100 		sd	ra,24(sp)
 411 0220 23388100 		sd	s0,16(sp)
 412 0224 23349100 		sd	s1,8(sp)
 413 0228 23302101 		sd	s2,0(sp)
 414              		.cfi_offset 1, -8
 415              		.cfi_offset 8, -16
 416              		.cfi_offset 9, -24
 417              		.cfi_offset 18, -32
 418 022c 13040102 		addi	s0,sp,32
 419              		.cfi_def_cfa 8, 0
 420 0230 93040500 		mv	s1,a0
 421 0234 13890500 		mv	s2,a1
 422              	.LBB16:
  69:src/_thread.cpp ****     :
  70:src/_thread.cpp ****     body(body),
  71:src/_thread.cpp ****     arg(arg),
  72:src/_thread.cpp ****     stack(body != nullptr ? (uint64*) MemoryAllocator::mem_alloc(sizeof(uint64) * DEFAULT_STACK_SIZ
  73:src/_thread.cpp ****     context({
  74:src/_thread.cpp ****     body != nullptr ? (uint64) &threadWrapper: 0,
  75:src/_thread.cpp ****     stack != nullptr ? (uint64) &stack[DEFAULT_STACK_SIZE] : 0
  76:src/_thread.cpp ****     }),
  77:src/_thread.cpp ****     main(body == nullptr)
 423              		.loc 1 77 25 is_stmt 0
 424 0238 2330B500 		sd	a1,0(a0)
 425 023c 2334C500 		sd	a2,8(a0)
  72:src/_thread.cpp ****     context({
 426              		.loc 1 72 27
 427 0240 63800506 		beqz	a1,.L30
  72:src/_thread.cpp ****     context({
 428              		.loc 1 72 65 discriminator 1
 429 0244 37850000 		li	a0,32768
 430              	.LVL30:
 431 0248 97000000 		call	_ZN15MemoryAllocator9mem_allocEm@plt
 431      E7800000 
 432              	.LVL31:
 433              	.L27:
 434              		.loc 1 77 25
GAS LISTING /tmp/cc91wra3.s 			page 11


 435 0250 23B8A400 		sd	a0,16(s1)
  74:src/_thread.cpp ****     stack != nullptr ? (uint64) &stack[DEFAULT_STACK_SIZE] : 0
 436              		.loc 1 74 21
 437 0254 630A0904 		beqz	s2,.L31
  74:src/_thread.cpp ****     stack != nullptr ? (uint64) &stack[DEFAULT_STACK_SIZE] : 0
 438              		.loc 1 74 21 discriminator 1
 439 0258 97070000 		lla	a5,_ZN7_thread13threadWrapperEv
 439      93870700 
 440              	.L28:
 441              		.loc 1 77 25
 442 0260 23BCF400 		sd	a5,24(s1)
  75:src/_thread.cpp ****     }),
 443              		.loc 1 75 22
 444 0264 63060504 		beqz	a0,.L32
  75:src/_thread.cpp ****     }),
 445              		.loc 1 75 33 discriminator 1
 446 0268 B7870000 		li	a5,32768
 447 026c 3305F500 		add	a0,a0,a5
 448              	.L29:
 449              		.loc 1 77 25
 450 0270 23B0A402 		sd	a0,32(s1)
 451              		.loc 1 77 15
 452 0274 13391900 		seqz	s2,s2
 453              	.LVL32:
 454              		.loc 1 77 25
 455 0278 23852403 		sb	s2,42(s1)
  78:src/_thread.cpp ****     {
  79:src/_thread.cpp ****         finished = false;
 456              		.loc 1 79 9 is_stmt 1
 457              		.loc 1 79 18 is_stmt 0
 458 027c 23840402 		sb	zero,40(s1)
  80:src/_thread.cpp ****         started = false;
 459              		.loc 1 80 9 is_stmt 1
 460              		.loc 1 80 17 is_stmt 0
 461 0280 A3840402 		sb	zero,41(s1)
  81:src/_thread.cpp ****         blocked = false;
 462              		.loc 1 81 9 is_stmt 1
 463              		.loc 1 81 17 is_stmt 0
 464 0284 A3850402 		sb	zero,43(s1)
 465              	.LBE16:
  82:src/_thread.cpp ****     }
 466              		.loc 1 82 5
 467 0288 83308101 		ld	ra,24(sp)
 468              		.cfi_remember_state
 469              		.cfi_restore 1
 470 028c 03340101 		ld	s0,16(sp)
 471              		.cfi_restore 8
 472              		.cfi_def_cfa 2, 32
 473 0290 83348100 		ld	s1,8(sp)
 474              		.cfi_restore 9
 475              	.LVL33:
 476 0294 03390100 		ld	s2,0(sp)
 477              		.cfi_restore 18
 478 0298 13010102 		addi	sp,sp,32
 479              		.cfi_def_cfa_offset 0
 480 029c 67800000 		jr	ra
 481              	.LVL34:
GAS LISTING /tmp/cc91wra3.s 			page 12


 482              	.L30:
 483              		.cfi_restore_state
 484              	.LBB17:
  72:src/_thread.cpp ****     context({
 485              		.loc 1 72 27
 486 02a0 13050000 		li	a0,0
 487 02a4 6FF0DFFA 		j	.L27
 488              	.LVL35:
 489              	.L31:
  74:src/_thread.cpp ****     stack != nullptr ? (uint64) &stack[DEFAULT_STACK_SIZE] : 0
 490              		.loc 1 74 21
 491 02a8 93070000 		li	a5,0
 492 02ac 6FF05FFB 		j	.L28
 493              	.L32:
  75:src/_thread.cpp ****     }),
 494              		.loc 1 75 22
 495 02b0 13050000 		li	a0,0
 496 02b4 6FF0DFFB 		j	.L29
 497              	.LBE17:
 498              		.cfi_endproc
 499              	.LFE40:
 501              		.globl	_ZN7_threadC1EPFvPvES0_
 502              		.set	_ZN7_threadC1EPFvPvES0_,_ZN7_threadC2EPFvPvES0_
 503              		.align	2
 504              		.globl	_ZN7_thread13createProcessEPFvPvES0_
 506              	_ZN7_thread13createProcessEPFvPvES0_:
 507              	.LFB29:
  13:src/_thread.cpp ****     return new _thread(body, args);
 508              		.loc 1 13 55 is_stmt 1
 509              		.cfi_startproc
 510              		.cfi_personality 0x9b,DW.ref.__gxx_personality_v0
 511              		.cfi_lsda 0x1b,.LLSDA29
 512              	.LVL36:
 513 02b8 130101FD 		addi	sp,sp,-48
 514              		.cfi_def_cfa_offset 48
 515 02bc 23341102 		sd	ra,40(sp)
 516 02c0 23308102 		sd	s0,32(sp)
 517 02c4 233C9100 		sd	s1,24(sp)
 518 02c8 23382101 		sd	s2,16(sp)
 519 02cc 23343101 		sd	s3,8(sp)
 520              		.cfi_offset 1, -8
 521              		.cfi_offset 8, -16
 522              		.cfi_offset 9, -24
 523              		.cfi_offset 18, -32
 524              		.cfi_offset 19, -40
 525 02d0 13040103 		addi	s0,sp,48
 526              		.cfi_def_cfa 8, 0
 527 02d4 13090500 		mv	s2,a0
 528 02d8 93890500 		mv	s3,a1
  14:src/_thread.cpp **** }
 529              		.loc 1 14 5
  14:src/_thread.cpp **** }
 530              		.loc 1 14 34 is_stmt 0
 531 02dc 13050003 		li	a0,48
 532              	.LVL37:
 533              	.LEHB0:
 534 02e0 97000000 		call	_ZN7_threadnwEm
GAS LISTING /tmp/cc91wra3.s 			page 13


 534      E7800000 
 535              	.LVL38:
 536              	.LEHE0:
 537 02e8 93040500 		mv	s1,a0
 538 02ec 13860900 		mv	a2,s3
 539 02f0 93050900 		mv	a1,s2
 540              	.LEHB1:
 541 02f4 97000000 		call	_ZN7_threadC1EPFvPvES0_
 541      E7800000 
 542              	.LVL39:
 543              	.LEHE1:
 544 02fc 6F000002 		j	.L39
 545              	.L36:
 546 0300 13090500 		mv	s2,a0
 547              	.LVL40:
 548 0304 13850400 		mv	a0,s1
 549 0308 97000000 		call	_ZN7_threaddlEPv
 549      E7800000 
 550              	.LVL41:
 551 0310 13050900 		mv	a0,s2
 552              	.LEHB2:
 553 0314 97000000 		call	_Unwind_Resume@plt
 553      E7800000 
 554              	.LVL42:
 555              	.LEHE2:
 556              	.L39:
  15:src/_thread.cpp **** 
 557              		.loc 1 15 1
 558 031c 13850400 		mv	a0,s1
 559 0320 83308102 		ld	ra,40(sp)
 560              		.cfi_restore 1
 561 0324 03340102 		ld	s0,32(sp)
 562              		.cfi_restore 8
 563              		.cfi_def_cfa 2, 48
 564 0328 83348101 		ld	s1,24(sp)
 565              		.cfi_restore 9
 566 032c 03390101 		ld	s2,16(sp)
 567              		.cfi_restore 18
 568              	.LVL43:
 569 0330 83398100 		ld	s3,8(sp)
 570              		.cfi_restore 19
 571              	.LVL44:
 572 0334 13010103 		addi	sp,sp,48
 573              		.cfi_def_cfa_offset 0
 574 0338 67800000 		jr	ra
 575              		.cfi_endproc
 576              	.LFE29:
 577              		.globl	__gxx_personality_v0
 578              		.section	.gcc_except_table,"a",@progbits
 579              	.LLSDA29:
 580 0000 FF       		.byte	0xff
 581 0001 FF       		.byte	0xff
 582 0002 03       		.byte	0x3
 583 0003 27       		.byte	0x27
 584 0004 00000000 		.4byte	.LEHB0-.LFB29
 585 0008 00000000 		.4byte	.LEHE0-.LEHB0
 586 000c 00000000 		.4byte	0
GAS LISTING /tmp/cc91wra3.s 			page 14


 587 0010 00       		.byte	0
 588 0011 00000000 		.4byte	.LEHB1-.LFB29
 589 0015 00000000 		.4byte	.LEHE1-.LEHB1
 590 0019 00000000 		.4byte	.L36-.LFB29
 591 001d 00       		.byte	0
 592 001e 00000000 		.4byte	.LEHB2-.LFB29
 593 0022 00000000 		.4byte	.LEHE2-.LEHB2
 594 0026 00000000 		.4byte	0
 595 002a 00       		.byte	0
 596              		.text
 598              		.align	2
 599              		.globl	_ZNK7_thread6isMainEv
 601              	_ZNK7_thread6isMainEv:
 602              	.LFB42:
  83:src/_thread.cpp **** 
  84:src/_thread.cpp **** bool _thread::isMain() const {
 603              		.loc 1 84 30 is_stmt 1
 604              		.cfi_startproc
 605              	.LVL45:
 606 033c 130101FF 		addi	sp,sp,-16
 607              		.cfi_def_cfa_offset 16
 608 0340 23348100 		sd	s0,8(sp)
 609              		.cfi_offset 8, -8
 610 0344 13040101 		addi	s0,sp,16
 611              		.cfi_def_cfa 8, 0
  85:src/_thread.cpp ****     return main;
 612              		.loc 1 85 5
  86:src/_thread.cpp **** }
 613              		.loc 1 86 1 is_stmt 0
 614 0348 0345A502 		lbu	a0,42(a0)
 615              	.LVL46:
 616 034c 03348100 		ld	s0,8(sp)
 617              		.cfi_restore 8
 618              		.cfi_def_cfa 2, 16
 619 0350 13010101 		addi	sp,sp,16
 620              		.cfi_def_cfa_offset 0
 621 0354 67800000 		jr	ra
 622              		.cfi_endproc
 623              	.LFE42:
 625              		.align	2
 626              		.globl	_ZN7_thread7setMainEb
 628              	_ZN7_thread7setMainEb:
 629              	.LFB43:
  87:src/_thread.cpp **** 
  88:src/_thread.cpp **** void _thread::setMain(bool m) {
 630              		.loc 1 88 31 is_stmt 1
 631              		.cfi_startproc
 632              	.LVL47:
 633 0358 130101FF 		addi	sp,sp,-16
 634              		.cfi_def_cfa_offset 16
 635 035c 23348100 		sd	s0,8(sp)
 636              		.cfi_offset 8, -8
 637 0360 13040101 		addi	s0,sp,16
 638              		.cfi_def_cfa 8, 0
  89:src/_thread.cpp ****     main = m;
 639              		.loc 1 89 5
 640              		.loc 1 89 10 is_stmt 0
GAS LISTING /tmp/cc91wra3.s 			page 15


 641 0364 2305B502 		sb	a1,42(a0)
  90:src/_thread.cpp **** }
 642              		.loc 1 90 1
 643 0368 03348100 		ld	s0,8(sp)
 644              		.cfi_restore 8
 645              		.cfi_def_cfa 2, 16
 646 036c 13010101 		addi	sp,sp,16
 647              		.cfi_def_cfa_offset 0
 648 0370 67800000 		jr	ra
 649              		.cfi_endproc
 650              	.LFE43:
 652              		.align	2
 653              		.globl	_ZN7_thread10setBlockedEb
 655              	_ZN7_thread10setBlockedEb:
 656              	.LFB44:
  91:src/_thread.cpp **** 
  92:src/_thread.cpp **** void _thread::setBlocked(bool b) {
 657              		.loc 1 92 34 is_stmt 1
 658              		.cfi_startproc
 659              	.LVL48:
 660 0374 130101FF 		addi	sp,sp,-16
 661              		.cfi_def_cfa_offset 16
 662 0378 23348100 		sd	s0,8(sp)
 663              		.cfi_offset 8, -8
 664 037c 13040101 		addi	s0,sp,16
 665              		.cfi_def_cfa 8, 0
  93:src/_thread.cpp ****     blocked = b;
 666              		.loc 1 93 5
 667              		.loc 1 93 13 is_stmt 0
 668 0380 A305B502 		sb	a1,43(a0)
  94:src/_thread.cpp **** }
 669              		.loc 1 94 1
 670 0384 03348100 		ld	s0,8(sp)
 671              		.cfi_restore 8
 672              		.cfi_def_cfa 2, 16
 673 0388 13010101 		addi	sp,sp,16
 674              		.cfi_def_cfa_offset 0
 675 038c 67800000 		jr	ra
 676              		.cfi_endproc
 677              	.LFE44:
 679              		.align	2
 680              		.globl	_ZNK7_thread9isBlockedEv
 682              	_ZNK7_thread9isBlockedEv:
 683              	.LFB45:
  95:src/_thread.cpp **** 
  96:src/_thread.cpp **** bool _thread::isBlocked() const {
 684              		.loc 1 96 33 is_stmt 1
 685              		.cfi_startproc
 686              	.LVL49:
 687 0390 130101FF 		addi	sp,sp,-16
 688              		.cfi_def_cfa_offset 16
 689 0394 23348100 		sd	s0,8(sp)
 690              		.cfi_offset 8, -8
 691 0398 13040101 		addi	s0,sp,16
 692              		.cfi_def_cfa 8, 0
  97:src/_thread.cpp ****     return blocked;
 693              		.loc 1 97 5
GAS LISTING /tmp/cc91wra3.s 			page 16


  98:src/_thread.cpp **** }
 694              		.loc 1 98 1 is_stmt 0
 695 039c 0345B502 		lbu	a0,43(a0)
 696              	.LVL50:
 697 03a0 03348100 		ld	s0,8(sp)
 698              		.cfi_restore 8
 699              		.cfi_def_cfa 2, 16
 700 03a4 13010101 		addi	sp,sp,16
 701              		.cfi_def_cfa_offset 0
 702 03a8 67800000 		jr	ra
 703              		.cfi_endproc
 704              	.LFE45:
 706              		.align	2
 707              		.globl	_ZN7_thread4joinEPS_
 709              	_ZN7_thread4joinEPS_:
 710              	.LFB46:
  99:src/_thread.cpp **** 
 100:src/_thread.cpp **** void _thread::join(_thread* t) {
 711              		.loc 1 100 32 is_stmt 1
 712              		.cfi_startproc
 713              	.LVL51:
 714 03ac 130101FE 		addi	sp,sp,-32
 715              		.cfi_def_cfa_offset 32
 716 03b0 233C1100 		sd	ra,24(sp)
 717 03b4 23388100 		sd	s0,16(sp)
 718 03b8 23349100 		sd	s1,8(sp)
 719              		.cfi_offset 1, -8
 720              		.cfi_offset 8, -16
 721              		.cfi_offset 9, -24
 722 03bc 13040102 		addi	s0,sp,32
 723              		.cfi_def_cfa 8, 0
 724 03c0 93040500 		mv	s1,a0
 725              	.LVL52:
 726              	.L50:
 101:src/_thread.cpp ****     while(!t->isFinished()) {
 727              		.loc 1 101 5
 728              		.loc 1 101 11
 729              	.LBB18:
 730              	.LBB19:
  19:src/../h/_thread.hpp ****     }
 731              		.loc 2 19 9
  19:src/../h/_thread.hpp ****     }
 732              		.loc 2 19 16 is_stmt 0
 733 03c4 83C78402 		lbu	a5,40(s1)
 734              	.LVL53:
 735              	.LBE19:
 736              	.LBE18:
 737              		.loc 1 101 11
 738 03c8 63980700 		bnez	a5,.L48
 102:src/_thread.cpp ****         dispatch();
 739              		.loc 1 102 9 is_stmt 1
 740              		.loc 1 102 17 is_stmt 0
 741 03cc 97000000 		call	_ZN7_thread8dispatchEv
 741      E7800000 
 742              	.LVL54:
 101:src/_thread.cpp ****     while(!t->isFinished()) {
 743              		.loc 1 101 5
GAS LISTING /tmp/cc91wra3.s 			page 17


 744 03d4 6FF01FFF 		j	.L50
 745              	.L48:
 103:src/_thread.cpp ****     }
 104:src/_thread.cpp **** }
 746              		.loc 1 104 1
 747 03d8 83308101 		ld	ra,24(sp)
 748              		.cfi_restore 1
 749 03dc 03340101 		ld	s0,16(sp)
 750              		.cfi_restore 8
 751              		.cfi_def_cfa 2, 32
 752 03e0 83348100 		ld	s1,8(sp)
 753              		.cfi_restore 9
 754              	.LVL55:
 755 03e4 13010102 		addi	sp,sp,32
 756              		.cfi_def_cfa_offset 0
 757 03e8 67800000 		jr	ra
 758              		.cfi_endproc
 759              	.LFE46:
 761              		.globl	_ZN7_thread7runningE
 762              		.bss
 763              		.align	3
 764              		.set	.LANCHOR0,. + 0
 767              	_ZN7_thread7runningE:
 768 0000 00000000 		.zero	8
 768      00000000 
 769              		.text
 770              	.Letext0:
 771              		.file 3 "src/../h/../lib/hw.h"
 772              		.file 4 "src/../h/../h/../h/../h/../h/MemDesc.hpp"
 773              		.file 5 "src/../h/../h/../h/../h/MemoryAllocator.hpp"
 774              		.file 6 "src/../h/../h/../h/list.hpp"
 775              		.file 7 "src/../h/../h/Scheduler.hpp"
 776              		.file 8 "src/../h/riscv.hpp"
 777              		.file 9 "src/../h/../h/syscall_c.hpp"
 4312              		.align	3
 4315              	DW.ref.__gxx_personality_v0:
 4316 0000 00000000 		.dword	__gxx_personality_v0
 4316      00000000 
 4317              		.ident	"GCC: (Ubuntu 9.4.0-1ubuntu1~20.04) 9.4.0"
 4318              		.section	.note.GNU-stack,"",@progbits
GAS LISTING /tmp/cc91wra3.s 			page 18

