GAS LISTING /tmp/ccAkXNI0.s 			page 1


   1              		.file	"main.cpp"
   2              		.option pic
   3              		.option norelax
   4              		.text
   5              	.Ltext0:
   6              		.align	2
   7              		.globl	_Z14wraperUserMainPv
   9              	_Z14wraperUserMainPv:
  10              	.LFB30:
  11              		.file 1 "src/main.cpp"
   1:src/main.cpp  **** //
   2:src/main.cpp  **** // Created by Danilo on 4/26/23.
   3:src/main.cpp  **** //
   4:src/main.cpp  **** 
   5:src/main.cpp  **** #include "../h/printing.hpp"
   6:src/main.cpp  **** #include "../h/riscv.hpp"
   7:src/main.cpp  **** #include "../h/syscall_c.hpp"
   8:src/main.cpp  **** #include "../h/_thread.hpp"
   9:src/main.cpp  **** #include "../h/_sem.hpp"
  10:src/main.cpp  **** #include "../h/MemoryAllocator.hpp"
  11:src/main.cpp  **** #include "../lib/console.h"
  12:src/main.cpp  **** #include "../h/syscall_cpp.hpp"
  13:src/main.cpp  **** #include "../h/ABICodes.hpp"
  14:src/main.cpp  **** #include "../h/buffer.hpp"
  15:src/main.cpp  **** 
  16:src/main.cpp  **** //handler_t vector_table[16] = {
  17:src/main.cpp  **** //        &Riscv::supervisorTrap,
  18:src/main.cpp  **** //        &Riscv::timerTrap,
  19:src/main.cpp  **** //        0,
  20:src/main.cpp  **** //        0,
  21:src/main.cpp  **** //        0,
  22:src/main.cpp  **** //        0,
  23:src/main.cpp  **** //        0,
  24:src/main.cpp  **** //        0,
  25:src/main.cpp  **** //        0,
  26:src/main.cpp  **** //        0,
  27:src/main.cpp  **** //        &Riscv::consoleTrap
  28:src/main.cpp  **** //};
  29:src/main.cpp  **** extern uint32 vector_table;
  30:src/main.cpp  **** bool ended = false;
  31:src/main.cpp  **** //bool ended1 = false;
  32:src/main.cpp  **** //bool ended2 = false;
  33:src/main.cpp  **** 
  34:src/main.cpp  **** //sem_t s1;
  35:src/main.cpp  **** //sem_t s2;
  36:src/main.cpp  **** 
  37:src/main.cpp  **** //void b1(void* a) {
  38:src/main.cpp  **** //    for (uint64 i = 0; i < 2; i++) {
  39:src/main.cpp  **** //        printString("i1="); printInt(i); printString("\n");
  40:src/main.cpp  **** //        for (uint64 j = 0; j < 10000; j++) {
  41:src/main.cpp  **** //            for (uint64 k = 0; k < 30000; k++) { /* busy wait */ }
  42:src/main.cpp  **** //        }
  43:src/main.cpp  **** //        if (i == 0) {
  44:src/main.cpp  **** //            printString("thread b signal 1\n");
  45:src/main.cpp  **** //            sem_signal(s1);
  46:src/main.cpp  **** //        } else {
  47:src/main.cpp  **** //            printString("thread b wait 2\n");
GAS LISTING /tmp/ccAkXNI0.s 			page 2


  48:src/main.cpp  **** //            sem_wait(s2);
  49:src/main.cpp  **** //        }
  50:src/main.cpp  **** //    }
  51:src/main.cpp  **** //    printString("end1\n");
  52:src/main.cpp  **** //    ended1 = true;
  53:src/main.cpp  **** //}
  54:src/main.cpp  **** 
  55:src/main.cpp  **** //void b2(void* a) {
  56:src/main.cpp  **** //    for (uint64 i = 0; i < 10; i++) {
  57:src/main.cpp  **** //        printString("i2="); printInt(i); printString("\n");
  58:src/main.cpp  **** //        for (uint64 j = 0; j < 5000; j++) {
  59:src/main.cpp  **** //            for (uint64 k = 0; k < 30000; k++) { /* busy wait */ }
  60:src/main.cpp  **** //            thread_dispatch();
  61:src/main.cpp  **** //        }
  62:src/main.cpp  **** //    }
  63:src/main.cpp  **** //    printString("end2\n");
  64:src/main.cpp  **** //    ended1 = true;
  65:src/main.cpp  **** //    thread_dispatch();
  66:src/main.cpp  **** //
  67:src/main.cpp  **** //}
  68:src/main.cpp  **** 
  69:src/main.cpp  **** void userMain();
  70:src/main.cpp  **** 
  71:src/main.cpp  **** void wraperUserMain(void *){
  12              		.loc 1 71 28
  13              		.cfi_startproc
  14 0000 130101FF 		addi	sp,sp,-16
  15              		.cfi_def_cfa_offset 16
  16 0004 23341100 		sd	ra,8(sp)
  17 0008 23308100 		sd	s0,0(sp)
  18              		.cfi_offset 1, -8
  19              		.cfi_offset 8, -16
  20 000c 13040101 		addi	s0,sp,16
  21              		.cfi_def_cfa 8, 0
  72:src/main.cpp  **** //    Riscv::mc_sstatus(Riscv::SSTATUS_SPP);
  73:src/main.cpp  **** //    uint64 adr = (uint64)(&userMain);
  74:src/main.cpp  **** //    __asm__ volatile("csrw sepc, %0" : : "r" (adr));
  75:src/main.cpp  **** //    __asm__ volatile("sret");
  76:src/main.cpp  ****     userMain();
  22              		.loc 1 76 5
  23              		.loc 1 76 13 is_stmt 0
  24 0010 97000000 		call	_Z8userMainv@plt
  24      E7800000 
  25              	.LVL0:
  77:src/main.cpp  ****     ended = true;
  26              		.loc 1 77 5 is_stmt 1
  27              		.loc 1 77 11 is_stmt 0
  28 0018 93071000 		li	a5,1
  29 001c 17070000 		sb	a5,.LANCHOR0,a4
  29      2300F700 
  78:src/main.cpp  ****     thread_dispatch();
  30              		.loc 1 78 5 is_stmt 1
  31              		.loc 1 78 20 is_stmt 0
  32 0024 97000000 		call	_Z15thread_dispatchv@plt
  32      E7800000 
  33              	.LVL1:
  79:src/main.cpp  **** }
GAS LISTING /tmp/ccAkXNI0.s 			page 3


  34              		.loc 1 79 1
  35 002c 83308100 		ld	ra,8(sp)
  36              		.cfi_restore 1
  37 0030 03340100 		ld	s0,0(sp)
  38              		.cfi_restore 8
  39              		.cfi_def_cfa 2, 16
  40 0034 13010101 		addi	sp,sp,16
  41              		.cfi_def_cfa_offset 0
  42 0038 67800000 		jr	ra
  43              		.cfi_endproc
  44              	.LFE30:
  46              		.align	2
  47              		.globl	main
  49              	main:
  50              	.LFB31:
  80:src/main.cpp  **** 
  81:src/main.cpp  **** int main() {
  51              		.loc 1 81 12 is_stmt 1
  52              		.cfi_startproc
  53 003c 130101FE 		addi	sp,sp,-32
  54              		.cfi_def_cfa_offset 32
  55 0040 233C1100 		sd	ra,24(sp)
  56 0044 23388100 		sd	s0,16(sp)
  57 0048 23349100 		sd	s1,8(sp)
  58 004c 23302101 		sd	s2,0(sp)
  59              		.cfi_offset 1, -8
  60              		.cfi_offset 8, -16
  61              		.cfi_offset 9, -24
  62              		.cfi_offset 18, -32
  63 0050 13040102 		addi	s0,sp,32
  64              		.cfi_def_cfa 8, 0
  82:src/main.cpp  **** 
  83:src/main.cpp  ****     MemoryAllocator::mem_init();
  65              		.loc 1 83 5
  66              		.loc 1 83 30 is_stmt 0
  67 0054 97000000 		call	_ZN15MemoryAllocator8mem_initEv@plt
  67      E7800000 
  68              	.LVL2:
  84:src/main.cpp  ****     Riscv::init_stvec((uint64) (&vector_table) | 0x01);
  69              		.loc 1 84 5 is_stmt 1
  70              		.loc 1 84 22 is_stmt 0
  71 005c 17050000 		la	a0,vector_table
  71      03350500 
  72 0064 13651500 		ori	a0,a0,1
  73 0068 1B050500 		sext.w	a0,a0
  74 006c 97000000 		call	_ZN5Riscv10init_stvecEj@plt
  74      E7800000 
  75              	.LVL3:
  85:src/main.cpp  ****     _thread *mainT = _thread::createProcess(nullptr, nullptr);
  76              		.loc 1 85 5 is_stmt 1
  77              		.loc 1 85 44 is_stmt 0
  78 0074 93050000 		li	a1,0
  79 0078 13050000 		li	a0,0
  80 007c 97000000 		call	_ZN7_thread13createProcessEPFvPvES0_@plt
  80      E7800000 
  81              	.LVL4:
  82 0084 93040500 		mv	s1,a0
GAS LISTING /tmp/ccAkXNI0.s 			page 4


  83              	.LVL5:
  86:src/main.cpp  **** 
  87:src/main.cpp  ****     _thread::running = mainT;
  84              		.loc 1 87 5 is_stmt 1
  85              		.loc 1 87 22 is_stmt 0
  86 0088 97070000 		la	a5,_ZN7_thread7runningE
  86      83B70700 
  87 0090 23B0A700 		sd	a0,0(a5)
  88:src/main.cpp  **** 
  89:src/main.cpp  **** //    _thread* t1 = _thread::createProcess(b1, nullptr);
  90:src/main.cpp  **** //    t1->start();
  91:src/main.cpp  **** 
  92:src/main.cpp  **** //    sem_open(&s1, 0);
  93:src/main.cpp  **** //    sem_open(&s2, 0);
  94:src/main.cpp  **** //
  95:src/main.cpp  **** //    printString("main wait 1\n");
  96:src/main.cpp  **** //    sem_wait(s1);
  97:src/main.cpp  **** //    printString("main signal 2\n");
  98:src/main.cpp  **** //    sem_signal(s2);
  99:src/main.cpp  **** //
 100:src/main.cpp  **** //    thread_dispatch();
 101:src/main.cpp  **** //
 102:src/main.cpp  **** //    sem_close(s1);
 103:src/main.cpp  **** //    sem_close(s2);
 104:src/main.cpp  **** 
 105:src/main.cpp  ****     _thread *user = _thread::createProcess(wraperUserMain, nullptr);
  88              		.loc 1 105 5 is_stmt 1
  89              		.loc 1 105 43 is_stmt 0
  90 0094 93050000 		li	a1,0
  91 0098 17050000 		lla	a0,_Z14wraperUserMainPv
  91      13050500 
  92 00a0 97000000 		call	_ZN7_thread13createProcessEPFvPvES0_@plt
  92      E7800000 
  93              	.LVL6:
  94 00a8 13090500 		mv	s2,a0
  95              	.LVL7:
 106:src/main.cpp  ****     user->start();
  96              		.loc 1 106 5 is_stmt 1
  97              		.loc 1 106 16 is_stmt 0
  98 00ac 97000000 		call	_ZN7_thread5startEv@plt
  98      E7800000 
  99              	.LVL8:
 107:src/main.cpp  **** 
 108:src/main.cpp  **** //    Thread* user = new Thread(wraperUserMain, nullptr);
 109:src/main.cpp  **** 
 110:src/main.cpp  **** //    Buffer *b = new Buffer(5);
 111:src/main.cpp  **** //    user->setMain(true);
 112:src/main.cpp  **** //
 113:src/main.cpp  **** //    _thread* t2 = _thread::createProcess(b2, nullptr);
 114:src/main.cpp  **** //    t2->start();
 115:src/main.cpp  **** 
 116:src/main.cpp  **** //    while(!ended) {
 117:src/main.cpp  **** //        thread_dispatch();
 118:src/main.cpp  **** //    }
 119:src/main.cpp  **** 
 120:src/main.cpp  ****     thread_join(user);
 100              		.loc 1 120 5 is_stmt 1
GAS LISTING /tmp/ccAkXNI0.s 			page 5


 101              		.loc 1 120 16 is_stmt 0
 102 00b4 13050900 		mv	a0,s2
 103 00b8 97000000 		call	_Z11thread_joinP7_thread@plt
 103      E7800000 
 104              	.LVL9:
 121:src/main.cpp  **** 
 122:src/main.cpp  ****     Riscv::restoreSupervisor();
 105              		.loc 1 122 5 is_stmt 1
 106              		.loc 1 122 29 is_stmt 0
 107 00c0 97000000 		call	_ZN5Riscv17restoreSupervisorEv@plt
 107      E7800000 
 108              	.LVL10:
 123:src/main.cpp  **** 
 124:src/main.cpp  ****     delete user;
 109              		.loc 1 124 5 is_stmt 1
 110              		.loc 1 124 16 is_stmt 0
 111 00c8 63000902 		beqz	s2,.L4
 112              	.LVL11:
 113              	.LBB8:
 114              	.LBB9:
 115              		.file 2 "src/../h/_thread.hpp"
   1:src/../h/_thread.hpp **** //
   2:src/../h/_thread.hpp **** // Created by Danilo on 5/29/23.
   3:src/../h/_thread.hpp **** // Preuzeto sa snimka iz vezbi 7.
   4:src/../h/_thread.hpp **** //
   5:src/../h/_thread.hpp **** 
   6:src/../h/_thread.hpp **** #ifndef PROJECT_BASE_V1_1__THREAD_HPP
   7:src/../h/_thread.hpp **** #define PROJECT_BASE_V1_1__THREAD_HPP
   8:src/../h/_thread.hpp **** 
   9:src/../h/_thread.hpp **** #include "../lib/hw.h"
  10:src/../h/_thread.hpp **** #include "../h/Scheduler.hpp"
  11:src/../h/_thread.hpp **** 
  12:src/../h/_thread.hpp **** class _thread {
  13:src/../h/_thread.hpp **** public:
  14:src/../h/_thread.hpp **** 
  15:src/../h/_thread.hpp ****     ~_thread() {
  16:src/../h/_thread.hpp ****         delete[] stack;
 116              		.loc 2 16 9 is_stmt 1
 117              		.loc 2 16 18 is_stmt 0
 118 00cc 03350901 		ld	a0,16(s2)
 119              		.loc 2 16 23
 120 00d0 63060500 		beqz	a0,.L5
 121              		.loc 2 16 18
 122 00d4 97000000 		call	_ZdaPv@plt
 122      E7800000 
 123              	.LVL12:
 124              	.L5:
 125              	.LBE9:
 126              	.LBE8:
 127              		.loc 1 124 12
 128 00dc 13050900 		mv	a0,s2
 129 00e0 97000000 		call	_ZN7_threaddlEPv@plt
 129      E7800000 
 130              	.LVL13:
 131              	.L4:
 125:src/main.cpp  **** 
 126:src/main.cpp  **** //    delete t1;
GAS LISTING /tmp/ccAkXNI0.s 			page 6


 127:src/main.cpp  **** 
 128:src/main.cpp  **** //    delete t2;
 129:src/main.cpp  **** 
 130:src/main.cpp  **** //    delete b;
 131:src/main.cpp  **** 
 132:src/main.cpp  ****     delete mainT;
 132              		.loc 1 132 5 is_stmt 1
 133              		.loc 1 132 17 is_stmt 0
 134 00e8 63800402 		beqz	s1,.L6
 135              	.LVL14:
 136              	.LBB10:
 137              	.LBB11:
 138              		.loc 2 16 9 is_stmt 1
 139              		.loc 2 16 18 is_stmt 0
 140 00ec 03B50401 		ld	a0,16(s1)
 141              		.loc 2 16 23
 142 00f0 63060500 		beqz	a0,.L7
 143              		.loc 2 16 18
 144 00f4 97000000 		call	_ZdaPv@plt
 144      E7800000 
 145              	.LVL15:
 146              	.L7:
 147              	.LBE11:
 148              	.LBE10:
 149              		.loc 1 132 12
 150 00fc 13850400 		mv	a0,s1
 151 0100 97000000 		call	_ZN7_threaddlEPv@plt
 151      E7800000 
 152              	.LVL16:
 153              	.L6:
 133:src/main.cpp  **** 
 134:src/main.cpp  ****     return 1;
 154              		.loc 1 134 5 is_stmt 1
 135:src/main.cpp  **** }
 155              		.loc 1 135 1 is_stmt 0
 156 0108 13051000 		li	a0,1
 157 010c 83308101 		ld	ra,24(sp)
 158              		.cfi_restore 1
 159 0110 03340101 		ld	s0,16(sp)
 160              		.cfi_restore 8
 161              		.cfi_def_cfa 2, 32
 162 0114 83348100 		ld	s1,8(sp)
 163              		.cfi_restore 9
 164              	.LVL17:
 165 0118 03390100 		ld	s2,0(sp)
 166              		.cfi_restore 18
 167              	.LVL18:
 168 011c 13010102 		addi	sp,sp,32
 169              		.cfi_def_cfa_offset 0
 170 0120 67800000 		jr	ra
 171              		.cfi_endproc
 172              	.LFE31:
 174              		.globl	ended
 175              		.bss
 176              		.set	.LANCHOR0,. + 0
 179              	ended:
 180 0000 00       		.zero	1
GAS LISTING /tmp/ccAkXNI0.s 			page 7


 181              		.text
 182              	.Letext0:
 183              		.file 3 "src/../h/../h/../lib/hw.h"
 184              		.file 4 "src/../h/riscv.hpp"
 185              		.file 5 "src/../h/../h/../h/../h/../h/MemDesc.hpp"
 186              		.file 6 "src/../h/../h/../h/../h/MemoryAllocator.hpp"
 187              		.file 7 "src/../h/../h/syscall_c.hpp"
GAS LISTING /tmp/ccAkXNI0.s 			page 8

