GAS LISTING /tmp/ccN2nPUn.s 			page 1


   1              		.file	"MemDesc.cpp"
   2              		.option pic
   3              		.option norelax
   4              		.text
   5              	.Ltext0:
   6              		.align	2
   7              		.globl	_Z9tryToJoinP7MemDesc
   9              	_Z9tryToJoinP7MemDesc:
  10              	.LFB0:
  11              		.file 1 "src/MemDesc.cpp"
   1:src/MemDesc.cpp **** //
   2:src/MemDesc.cpp **** // Created by Danilo on 4/28/23.
   3:src/MemDesc.cpp **** //
   4:src/MemDesc.cpp **** 
   5:src/MemDesc.cpp **** #include "../h/MemDesc.hpp"
   6:src/MemDesc.cpp **** 
   7:src/MemDesc.cpp **** // Preuzeto sa kolokvijuma septembar 2015. zadatak 2.
   8:src/MemDesc.cpp **** int tryToJoin(MemDesc* node) {
  12              		.loc 1 8 30
  13              		.cfi_startproc
  14              	.LVL0:
  15 0000 130101FF 		addi	sp,sp,-16
  16              		.cfi_def_cfa_offset 16
  17 0004 23348100 		sd	s0,8(sp)
  18              		.cfi_offset 8, -8
  19 0008 13040101 		addi	s0,sp,16
  20              		.cfi_def_cfa 8, 0
   9:src/MemDesc.cpp ****     // if node doesn't exist return
  10:src/MemDesc.cpp ****     if (!node) return 0;
  21              		.loc 1 10 5
  22 000c 63060504 		beqz	a0,.L4
  11:src/MemDesc.cpp ****     // if next exists and its address is the same as node + node-> size, delete next, increase size
  12:src/MemDesc.cpp ****     if (node->next && (char*)node+node->size == (char*)(node->next)) {
  23              		.loc 1 12 5
  24              		.loc 1 12 15 is_stmt 0
  25 0010 83378500 		ld	a5,8(a0)
  26              		.loc 1 12 5
  27 0014 63860704 		beqz	a5,.L5
  28              		.loc 1 12 41 discriminator 1
  29 0018 03370501 		ld	a4,16(a0)
  30              		.loc 1 12 34 discriminator 1
  31 001c B306E500 		add	a3,a0,a4
  32              		.loc 1 12 20 discriminator 1
  33 0020 638AD700 		beq	a5,a3,.L8
  13:src/MemDesc.cpp ****         node->size += node->next->size;
  14:src/MemDesc.cpp ****         node->next = node->next->next;
  15:src/MemDesc.cpp ****         if (node->next) node->next->prev = node;
  16:src/MemDesc.cpp ****         return 1;
  17:src/MemDesc.cpp ****     }
  18:src/MemDesc.cpp ****     else {
  19:src/MemDesc.cpp ****         return 0;
  34              		.loc 1 19 16
  35 0024 13050000 		li	a0,0
  36              	.LVL1:
  37              	.L2:
  20:src/MemDesc.cpp ****     }
  21:src/MemDesc.cpp **** }...
GAS LISTING /tmp/ccN2nPUn.s 			page 2


  38              		.loc 1 21 1
  39 0028 03348100 		ld	s0,8(sp)
  40              		.cfi_remember_state
  41              		.cfi_restore 8
  42              		.cfi_def_cfa 2, 16
  43 002c 13010101 		addi	sp,sp,16
  44              		.cfi_def_cfa_offset 0
  45 0030 67800000 		jr	ra
  46              	.LVL2:
  47              	.L8:
  48              		.cfi_restore_state
  13:src/MemDesc.cpp ****         node->size += node->next->size;
  49              		.loc 1 13 9 is_stmt 1
  13:src/MemDesc.cpp ****         node->size += node->next->size;
  50              		.loc 1 13 35 is_stmt 0
  51 0034 83B60701 		ld	a3,16(a5)
  13:src/MemDesc.cpp ****         node->size += node->next->size;
  52              		.loc 1 13 20
  53 0038 3307D700 		add	a4,a4,a3
  54 003c 2338E500 		sd	a4,16(a0)
  14:src/MemDesc.cpp ****         node->next = node->next->next;
  55              		.loc 1 14 9 is_stmt 1
  14:src/MemDesc.cpp ****         node->next = node->next->next;
  56              		.loc 1 14 34 is_stmt 0
  57 0040 83B78700 		ld	a5,8(a5)
  14:src/MemDesc.cpp ****         node->next = node->next->next;
  58              		.loc 1 14 20
  59 0044 2334F500 		sd	a5,8(a0)
  15:src/MemDesc.cpp ****         if (node->next) node->next->prev = node;
  60              		.loc 1 15 9 is_stmt 1
  61 0048 63840700 		beqz	a5,.L3
  15:src/MemDesc.cpp ****         if (node->next) node->next->prev = node;
  62              		.loc 1 15 25 discriminator 1
  15:src/MemDesc.cpp ****         if (node->next) node->next->prev = node;
  63              		.loc 1 15 42 is_stmt 0 discriminator 1
  64 004c 23B0A700 		sd	a0,0(a5)
  65              	.L3:
  16:src/MemDesc.cpp ****         return 1;
  66              		.loc 1 16 9 is_stmt 1
  16:src/MemDesc.cpp ****         return 1;
  67              		.loc 1 16 16 is_stmt 0
  68 0050 13051000 		li	a0,1
  69              	.LVL3:
  70 0054 6FF05FFD 		j	.L2
  71              	.LVL4:
  72              	.L4:
  10:src/MemDesc.cpp ****     if (!node) return 0;
  73              		.loc 1 10 23
  74 0058 13050000 		li	a0,0
  75              	.LVL5:
  76 005c 6FF0DFFC 		j	.L2
  77              	.LVL6:
  78              	.L5:
  19:src/MemDesc.cpp ****         return 0;
  79              		.loc 1 19 16
  80 0060 13050000 		li	a0,0
  81              	.LVL7:
GAS LISTING /tmp/ccN2nPUn.s 			page 3


  82 0064 6FF05FFC 		j	.L2
  83              		.cfi_endproc
  84              	.LFE0:
  86              	.Letext0:
  87              		.file 2 "src/../h/../lib/hw.h"
  88              		.file 3 "src/../h/MemDesc.hpp"
GAS LISTING /tmp/ccN2nPUn.s 			page 4


DEFINED SYMBOLS
                            *ABS*:0000000000000000 MemDesc.cpp
     /tmp/ccN2nPUn.s:9      .text:0000000000000000 _Z9tryToJoinP7MemDesc
     /tmp/ccN2nPUn.s:13     .text:0000000000000000 .L0 
     /tmp/ccN2nPUn.s:15     .text:0000000000000000 .L0 
     /tmp/ccN2nPUn.s:16     .text:0000000000000004 .L0 
     /tmp/ccN2nPUn.s:18     .text:0000000000000008 .L0 
     /tmp/ccN2nPUn.s:20     .text:000000000000000c .L0 
     /tmp/ccN2nPUn.s:22     .text:000000000000000c .L0 
     /tmp/ccN2nPUn.s:24     .text:0000000000000010 .L0 
     /tmp/ccN2nPUn.s:25     .text:0000000000000010 .L0 
     /tmp/ccN2nPUn.s:27     .text:0000000000000014 .L0 
     /tmp/ccN2nPUn.s:29     .text:0000000000000018 .L0 
     /tmp/ccN2nPUn.s:31     .text:000000000000001c .L0 
     /tmp/ccN2nPUn.s:33     .text:0000000000000020 .L0 
     /tmp/ccN2nPUn.s:35     .text:0000000000000024 .L0 
     /tmp/ccN2nPUn.s:39     .text:0000000000000028 .L0 
     /tmp/ccN2nPUn.s:40     .text:000000000000002c .L0 
     /tmp/ccN2nPUn.s:41     .text:000000000000002c .L0 
     /tmp/ccN2nPUn.s:42     .text:000000000000002c .L0 
     /tmp/ccN2nPUn.s:44     .text:0000000000000030 .L0 
     /tmp/ccN2nPUn.s:48     .text:0000000000000034 .L0 
     /tmp/ccN2nPUn.s:50     .text:0000000000000034 .L0 
     /tmp/ccN2nPUn.s:51     .text:0000000000000034 .L0 
     /tmp/ccN2nPUn.s:53     .text:0000000000000038 .L0 
     /tmp/ccN2nPUn.s:56     .text:0000000000000040 .L0 
     /tmp/ccN2nPUn.s:57     .text:0000000000000040 .L0 
     /tmp/ccN2nPUn.s:59     .text:0000000000000044 .L0 
     /tmp/ccN2nPUn.s:61     .text:0000000000000048 .L0 
     /tmp/ccN2nPUn.s:63     .text:000000000000004c .L0 
     /tmp/ccN2nPUn.s:64     .text:000000000000004c .L0 
     /tmp/ccN2nPUn.s:67     .text:0000000000000050 .L0 
     /tmp/ccN2nPUn.s:68     .text:0000000000000050 .L0 
     /tmp/ccN2nPUn.s:74     .text:0000000000000058 .L0 
     /tmp/ccN2nPUn.s:80     .text:0000000000000060 .L0 
     /tmp/ccN2nPUn.s:83     .text:0000000000000068 .L0 
     /tmp/ccN2nPUn.s:89     .text:0000000000000068 .L0 
     /tmp/ccN2nPUn.s:72     .text:0000000000000058 .L4
     /tmp/ccN2nPUn.s:78     .text:0000000000000060 .L5
     /tmp/ccN2nPUn.s:47     .text:0000000000000034 .L8
     /tmp/ccN2nPUn.s:65     .text:0000000000000050 .L3
     /tmp/ccN2nPUn.s:37     .text:0000000000000028 .L2
     /tmp/ccN2nPUn.s:278    .debug_abbrev:0000000000000000 .Ldebug_abbrev0
     /tmp/ccN2nPUn.s:594    .debug_str:0000000000000144 .LASF21
     /tmp/ccN2nPUn.s:554    .debug_str:0000000000000000 .LASF22
     /tmp/ccN2nPUn.s:580    .debug_str:00000000000000b5 .LASF23
     /tmp/ccN2nPUn.s:5      .text:0000000000000000 .Ltext0
     /tmp/ccN2nPUn.s:86     .text:0000000000000068 .Letext0
     /tmp/ccN2nPUn.s:552    .debug_line:0000000000000000 .Ldebug_line0
     /tmp/ccN2nPUn.s:602    .debug_str:000000000000022c .LASF0
     /tmp/ccN2nPUn.s:592    .debug_str:0000000000000131 .LASF1
     /tmp/ccN2nPUn.s:576    .debug_str:0000000000000091 .LASF2
     /tmp/ccN2nPUn.s:570    .debug_str:0000000000000079 .LASF4
     /tmp/ccN2nPUn.s:566    .debug_str:0000000000000054 .LASF3
     /tmp/ccN2nPUn.s:562    .debug_str:000000000000003d .LASF5
     /tmp/ccN2nPUn.s:568    .debug_str:0000000000000066 .LASF6
     /tmp/ccN2nPUn.s:590    .debug_str:000000000000011e .LASF7
GAS LISTING /tmp/ccN2nPUn.s 			page 5


     /tmp/ccN2nPUn.s:598    .debug_str:0000000000000217 .LASF8
     /tmp/ccN2nPUn.s:558    .debug_str:0000000000000020 .LASF9
     /tmp/ccN2nPUn.s:560    .debug_str:000000000000002e .LASF10
     /tmp/ccN2nPUn.s:596    .debug_str:0000000000000208 .LASF11
     /tmp/ccN2nPUn.s:564    .debug_str:0000000000000044 .LASF12
     /tmp/ccN2nPUn.s:556    .debug_str:0000000000000010 .LASF13
     /tmp/ccN2nPUn.s:574    .debug_str:0000000000000085 .LASF14
     /tmp/ccN2nPUn.s:584    .debug_str:00000000000000ed .LASF15
     /tmp/ccN2nPUn.s:578    .debug_str:000000000000009f .LASF16
     /tmp/ccN2nPUn.s:604    .debug_str:0000000000000239 .LASF20
     /tmp/ccN2nPUn.s:600    .debug_str:0000000000000227 .LASF17
     /tmp/ccN2nPUn.s:606    .debug_str:0000000000000241 .LASF18
     /tmp/ccN2nPUn.s:572    .debug_str:0000000000000080 .LASF19
     /tmp/ccN2nPUn.s:582    .debug_str:00000000000000e3 .LASF24
     /tmp/ccN2nPUn.s:588    .debug_str:0000000000000108 .LASF25
     /tmp/ccN2nPUn.s:10     .text:0000000000000000 .LFB0
     /tmp/ccN2nPUn.s:84     .text:0000000000000068 .LFE0
     /tmp/ccN2nPUn.s:586    .debug_str:0000000000000103 .LASF26
     /tmp/ccN2nPUn.s:492    .debug_loc:0000000000000000 .LLST0
     /tmp/ccN2nPUn.s:14     .text:0000000000000000 .LVL0
     /tmp/ccN2nPUn.s:36     .text:0000000000000028 .LVL1
     /tmp/ccN2nPUn.s:46     .text:0000000000000034 .LVL2
     /tmp/ccN2nPUn.s:69     .text:0000000000000054 .LVL3
     /tmp/ccN2nPUn.s:71     .text:0000000000000058 .LVL4
     /tmp/ccN2nPUn.s:75     .text:000000000000005c .LVL5
     /tmp/ccN2nPUn.s:77     .text:0000000000000060 .LVL6
     /tmp/ccN2nPUn.s:81     .text:0000000000000064 .LVL7
     /tmp/ccN2nPUn.s:90     .debug_info:0000000000000000 .Ldebug_info0

NO UNDEFINED SYMBOLS
