GAS LISTING /tmp/cc4mC8hH.s 			page 1


   1              		.file	"MemoryAllocator.cpp"
   2              		.option pic
   3              		.option norelax
   4              		.text
   5              	.Ltext0:
   6              		.align	2
   7              		.globl	_ZN15MemoryAllocator8mem_initEv
   9              	_ZN15MemoryAllocator8mem_initEv:
  10              	.LFB0:
  11              		.file 1 "src/MemoryAllocator.cpp"
   1:src/MemoryAllocator.cpp **** //
   2:src/MemoryAllocator.cpp **** // Created by Danilo on 4/28/23.
   3:src/MemoryAllocator.cpp **** //
   4:src/MemoryAllocator.cpp **** 
   5:src/MemoryAllocator.cpp **** #include "../h/MemoryAllocator.hpp"
   6:src/MemoryAllocator.cpp **** 
   7:src/MemoryAllocator.cpp **** MemDesc* MemoryAllocator::free_head;
   8:src/MemoryAllocator.cpp **** MemDesc* MemoryAllocator::allocated_head;
   9:src/MemoryAllocator.cpp **** int MemoryAllocator::counter = 0;
  10:src/MemoryAllocator.cpp **** 
  11:src/MemoryAllocator.cpp **** void MemoryAllocator::mem_init() {
  12              		.loc 1 11 34
  13              		.cfi_startproc
  14 0000 130101FF 		addi	sp,sp,-16
  15              		.cfi_def_cfa_offset 16
  16 0004 23348100 		sd	s0,8(sp)
  17              		.cfi_offset 8, -8
  18 0008 13040101 		addi	s0,sp,16
  19              		.cfi_def_cfa 8, 0
  12:src/MemoryAllocator.cpp ****     free_head = (MemDesc*) HEAP_START_ADDR;
  20              		.loc 1 12 5
  21              		.loc 1 12 15 is_stmt 0
  22 000c 97060000 		la	a3,HEAP_START_ADDR
  22      83B60600 
  23 0014 03B70600 		ld	a4,0(a3)
  24 0018 97070000 		lla	a5,.LANCHOR0
  24      93870700 
  25 0020 23B0E700 		sd	a4,0(a5)
  13:src/MemoryAllocator.cpp ****     free_head->prev = nullptr;
  26              		.loc 1 13 5 is_stmt 1
  27              		.loc 1 13 21 is_stmt 0
  28 0024 23300700 		sd	zero,0(a4)
  14:src/MemoryAllocator.cpp ****     free_head->next = nullptr;
  29              		.loc 1 14 5 is_stmt 1
  30              		.loc 1 14 16 is_stmt 0
  31 0028 03B70700 		ld	a4,0(a5)
  32              		.loc 1 14 21
  33 002c 23340700 		sd	zero,8(a4)
  15:src/MemoryAllocator.cpp ****     size_t sz = ((char*) HEAP_END_ADDR - (char*) HEAP_START_ADDR - 1);
  34              		.loc 1 15 5 is_stmt 1
  35              		.loc 1 15 18 is_stmt 0
  36 0030 97070000 		la	a5,HEAP_END_ADDR
  36      83B70700 
  37 0038 83B70700 		ld	a5,0(a5)
  38              		.loc 1 15 42
  39 003c 83B60600 		ld	a3,0(a3)
  40              		.loc 1 15 40
GAS LISTING /tmp/cc4mC8hH.s 			page 2


  41 0040 B387D740 		sub	a5,a5,a3
  42              		.loc 1 15 66
  43 0044 9387F7FF 		addi	a5,a5,-1
  44              	.LVL0:
  16:src/MemoryAllocator.cpp **** //    if (sz % MEM_BLOCK_SIZE != 0) sz = (sz / MEM_BLOCK_SIZE) * MEM_BLOCK_SIZE; // align to MEM_BL
  17:src/MemoryAllocator.cpp ****     free_head->size = sz;
  45              		.loc 1 17 5 is_stmt 1
  46              		.loc 1 17 21 is_stmt 0
  47 0048 2338F700 		sd	a5,16(a4)
  18:src/MemoryAllocator.cpp **** }
  48              		.loc 1 18 1
  49 004c 03348100 		ld	s0,8(sp)
  50              		.cfi_restore 8
  51              		.cfi_def_cfa 2, 16
  52 0050 13010101 		addi	sp,sp,16
  53              		.cfi_def_cfa_offset 0
  54 0054 67800000 		jr	ra
  55              		.cfi_endproc
  56              	.LFE0:
  58              		.align	2
  59              		.globl	_ZN15MemoryAllocator9mem_allocEm
  61              	_ZN15MemoryAllocator9mem_allocEm:
  62              	.LFB1:
  19:src/MemoryAllocator.cpp **** 
  20:src/MemoryAllocator.cpp **** // Preuzeto sa kolokvijuma april 2014. zadatak 2.
  21:src/MemoryAllocator.cpp **** void *MemoryAllocator::mem_alloc(size_t sz) {
  63              		.loc 1 21 45 is_stmt 1
  64              		.cfi_startproc
  65              	.LVL1:
  66 0058 130101FF 		addi	sp,sp,-16
  67              		.cfi_def_cfa_offset 16
  68 005c 23348100 		sd	s0,8(sp)
  69              		.cfi_offset 8, -8
  70 0060 13040101 		addi	s0,sp,16
  71              		.cfi_def_cfa 8, 0
  72 0064 93070500 		mv	a5,a0
  22:src/MemoryAllocator.cpp ****     if (!free_head) return nullptr;
  73              		.loc 1 22 5
  74              		.loc 1 22 9 is_stmt 0
  75 0068 17050000 		ld	a0,.LANCHOR0
  75      03350500 
  76              	.LVL2:
  77              		.loc 1 22 5
  78 0070 630C0512 		beqz	a0,.L3
  23:src/MemoryAllocator.cpp **** 
  24:src/MemoryAllocator.cpp ****     sz += sizeof(MemDesc);
  79              		.loc 1 24 5 is_stmt 1
  80              		.loc 1 24 8 is_stmt 0
  81 0074 93878701 		addi	a5,a5,24
  82              	.LVL3:
  25:src/MemoryAllocator.cpp ****     // align to MEM_BLOCK_SIZE
  26:src/MemoryAllocator.cpp ****     if (sz % MEM_BLOCK_SIZE != 0) sz = ((sz / MEM_BLOCK_SIZE) + 1) * MEM_BLOCK_SIZE;
  83              		.loc 1 26 5 is_stmt 1
  84              		.loc 1 26 12 is_stmt 0
  85 0078 13F7F703 		andi	a4,a5,63
  86              		.loc 1 26 5
  87 007c 63080700 		beqz	a4,.L8
GAS LISTING /tmp/cc4mC8hH.s 			page 3


  88              		.loc 1 26 35 is_stmt 1 discriminator 1
  89              		.loc 1 26 45 is_stmt 0 discriminator 1
  90 0080 93D76700 		srli	a5,a5,6
  91              	.LVL4:
  92              		.loc 1 26 63 discriminator 1
  93 0084 93871700 		addi	a5,a5,1
  94              		.loc 1 26 38 discriminator 1
  95 0088 93976700 		slli	a5,a5,6
  96              	.LVL5:
  27:src/MemoryAllocator.cpp **** 
  28:src/MemoryAllocator.cpp ****     // remove from free_head list
  29:src/MemoryAllocator.cpp ****     MemDesc* cur = free_head;
  97              		.loc 1 29 5 is_stmt 1 discriminator 1
  98              	.L8:
  30:src/MemoryAllocator.cpp ****     for(; cur != 0; cur = cur->next){
  99              		.loc 1 30 5 discriminator 1
 100              	.LBB2:
 101              		.loc 1 30 15 discriminator 1
 102 008c 63080508 		beqz	a0,.L6
 103              	.LBB3:
  31:src/MemoryAllocator.cpp ****         if (cur->size < sz) continue;
 104              		.loc 1 31 9
 105              		.loc 1 31 18 is_stmt 0
 106 0090 03370501 		ld	a4,16(a0)
 107              		.loc 1 31 9
 108 0094 636AF702 		bltu	a4,a5,.L24
  32:src/MemoryAllocator.cpp ****         if (cur->size - sz <= sizeof(MemDesc)) {
 109              		.loc 1 32 9 is_stmt 1
 110              	.LBB4:
 111              		.loc 1 32 23 is_stmt 0
 112 0098 3307F740 		sub	a4,a4,a5
 113              		.loc 1 32 9
 114 009c 93068001 		li	a3,24
 115 00a0 63E0E604 		bgtu	a4,a3,.L9
  33:src/MemoryAllocator.cpp ****             if (cur->prev) cur->prev->next = cur->next;
 116              		.loc 1 33 13 is_stmt 1
 117              		.loc 1 33 22 is_stmt 0
 118 00a4 83370500 		ld	a5,0(a0)
 119              	.LVL6:
 120              		.loc 1 33 13
 121 00a8 63840702 		beqz	a5,.L10
 122              		.loc 1 33 28 is_stmt 1 discriminator 1
 123              		.loc 1 33 51 is_stmt 0 discriminator 1
 124 00ac 03378500 		ld	a4,8(a0)
 125              		.loc 1 33 44 discriminator 1
 126 00b0 23B4E700 		sd	a4,8(a5)
 127              	.L11:
  34:src/MemoryAllocator.cpp ****             else free_head = cur->next;
  35:src/MemoryAllocator.cpp ****             if (cur->next) cur->next->prev = cur->prev;
 128              		.loc 1 35 13 is_stmt 1
 129              		.loc 1 35 22 is_stmt 0
 130 00b4 83378500 		ld	a5,8(a0)
 131              		.loc 1 35 13
 132 00b8 63820706 		beqz	a5,.L6
 133              		.loc 1 35 28 is_stmt 1 discriminator 1
 134              		.loc 1 35 51 is_stmt 0 discriminator 1
 135 00bc 03370500 		ld	a4,0(a0)
GAS LISTING /tmp/cc4mC8hH.s 			page 4


 136              		.loc 1 35 44 discriminator 1
 137 00c0 23B0E700 		sd	a4,0(a5)
 138 00c4 6F008005 		j	.L6
 139              	.LVL7:
 140              	.L24:
 141              	.LBE4:
  31:src/MemoryAllocator.cpp ****         if (cur->size - sz <= sizeof(MemDesc)) {
 142              		.loc 1 31 29 is_stmt 1 discriminator 1
 143              	.LBE3:
  30:src/MemoryAllocator.cpp ****         if (cur->size < sz) continue;
 144              		.loc 1 30 5 discriminator 1
  30:src/MemoryAllocator.cpp ****         if (cur->size < sz) continue;
 145              		.loc 1 30 25 is_stmt 0 discriminator 1
 146 00c8 03358500 		ld	a0,8(a0)
 147              	.LVL8:
  30:src/MemoryAllocator.cpp ****         if (cur->size < sz) continue;
 148              		.loc 1 30 5 discriminator 1
 149 00cc 6FF01FFC 		j	.L8
 150              	.LVL9:
 151              	.L10:
 152              	.LBB9:
 153              	.LBB7:
  34:src/MemoryAllocator.cpp ****             else free_head = cur->next;
 154              		.loc 1 34 18 is_stmt 1
  34:src/MemoryAllocator.cpp ****             else free_head = cur->next;
 155              		.loc 1 34 35 is_stmt 0
 156 00d0 83378500 		ld	a5,8(a0)
  34:src/MemoryAllocator.cpp ****             else free_head = cur->next;
 157              		.loc 1 34 28
 158 00d4 17070000 		sd	a5,.LANCHOR0,a4
 158      2330F700 
 159 00dc 6FF09FFD 		j	.L11
 160              	.LVL10:
 161              	.L9:
 162              	.LBB5:
  36:src/MemoryAllocator.cpp ****             break;
  37:src/MemoryAllocator.cpp ****         }
  38:src/MemoryAllocator.cpp ****         else {
  39:src/MemoryAllocator.cpp ****             MemDesc* newNode = (MemDesc*) ((char*)cur + sz);
 163              		.loc 1 39 13 is_stmt 1
 164              		.loc 1 39 22 is_stmt 0
 165 00e0 3307F500 		add	a4,a0,a5
 166              	.LVL11:
  40:src/MemoryAllocator.cpp ****             if (cur->prev) cur->prev->next = newNode;
 167              		.loc 1 40 13 is_stmt 1
 168              		.loc 1 40 22 is_stmt 0
 169 00e4 83360500 		ld	a3,0(a0)
 170              		.loc 1 40 13
 171 00e8 638E0606 		beqz	a3,.L12
 172              		.loc 1 40 28 is_stmt 1 discriminator 1
 173              		.loc 1 40 44 is_stmt 0 discriminator 1
 174 00ec 23B4E600 		sd	a4,8(a3)
 175              	.L13:
  41:src/MemoryAllocator.cpp ****             else free_head = newNode;
  42:src/MemoryAllocator.cpp ****             if (cur->next) cur->next->prev = newNode;
 176              		.loc 1 42 13 is_stmt 1
 177              		.loc 1 42 22 is_stmt 0
GAS LISTING /tmp/cc4mC8hH.s 			page 5


 178 00f0 83368500 		ld	a3,8(a0)
 179              		.loc 1 42 13
 180 00f4 63840600 		beqz	a3,.L14
 181              		.loc 1 42 28 is_stmt 1 discriminator 1
 182              		.loc 1 42 44 is_stmt 0 discriminator 1
 183 00f8 23B0E600 		sd	a4,0(a3)
 184              	.L14:
  43:src/MemoryAllocator.cpp ****             newNode->prev = cur->prev;
 185              		.loc 1 43 13 is_stmt 1
 186              		.loc 1 43 34 is_stmt 0
 187 00fc 83360500 		ld	a3,0(a0)
 188              		.loc 1 43 27
 189 0100 2330D700 		sd	a3,0(a4)
  44:src/MemoryAllocator.cpp ****             newNode->next = cur->next;
 190              		.loc 1 44 13 is_stmt 1
 191              		.loc 1 44 34 is_stmt 0
 192 0104 83368500 		ld	a3,8(a0)
 193              		.loc 1 44 27
 194 0108 2334D700 		sd	a3,8(a4)
  45:src/MemoryAllocator.cpp ****             newNode->size = cur->size - sz;
 195              		.loc 1 45 13 is_stmt 1
 196              		.loc 1 45 34 is_stmt 0
 197 010c 83360501 		ld	a3,16(a0)
 198              		.loc 1 45 39
 199 0110 B386F640 		sub	a3,a3,a5
 200              		.loc 1 45 27
 201 0114 2338D700 		sd	a3,16(a4)
  46:src/MemoryAllocator.cpp **** 
  47:src/MemoryAllocator.cpp ****             cur->size = sz;
 202              		.loc 1 47 13 is_stmt 1
 203              		.loc 1 47 23 is_stmt 0
 204 0118 2338F500 		sd	a5,16(a0)
  48:src/MemoryAllocator.cpp ****             break;
 205              		.loc 1 48 13 is_stmt 1
 206              	.LVL12:
 207              	.L6:
 208              	.LBE5:
 209              	.LBE7:
 210              	.LBE9:
 211              	.LBE2:
  49:src/MemoryAllocator.cpp ****         }
  50:src/MemoryAllocator.cpp ****     }
  51:src/MemoryAllocator.cpp **** 
  52:src/MemoryAllocator.cpp ****     // insert in allocated_head list
  53:src/MemoryAllocator.cpp ****     MemDesc* node = cur;
 212              		.loc 1 53 5
  54:src/MemoryAllocator.cpp ****     if (!node) return nullptr;
 213              		.loc 1 54 5
 214 011c 63060508 		beqz	a0,.L3
  55:src/MemoryAllocator.cpp ****     if (!allocated_head || ((char*)node < (char*)allocated_head))
 215              		.loc 1 55 5
 216              		.loc 1 55 9 is_stmt 0
 217 0120 97070000 		ld	a5,.LANCHOR0+8
 217      83B70700 
 218              		.loc 1 55 5
 219 0128 63860708 		beqz	a5,.L15
 220              		.loc 1 55 25 discriminator 1
GAS LISTING /tmp/cc4mC8hH.s 			page 6


 221 012c 6362F504 		bgtu	a5,a0,.L16
 222              	.LVL13:
 223              	.L18:
  56:src/MemoryAllocator.cpp ****         cur = nullptr; // insert as the first
  57:src/MemoryAllocator.cpp ****     else {
  58:src/MemoryAllocator.cpp ****         for(cur = allocated_head; cur->next != nullptr && (char*)node > (char*)(cur->next);
 224              		.loc 1 58 56 is_stmt 1 discriminator 1
 225 0130 13870700 		mv	a4,a5
 226              		.loc 1 58 40 is_stmt 0 discriminator 1
 227 0134 83B78700 		ld	a5,8(a5)
 228              	.LVL14:
 229              		.loc 1 58 56 discriminator 1
 230 0138 63840700 		beqz	a5,.L17
 231              		.loc 1 58 56 discriminator 2
 232 013c E3EAA7FE 		bltu	a5,a0,.L18
 233              	.L17:
  59:src/MemoryAllocator.cpp ****         cur = cur->next);
  60:src/MemoryAllocator.cpp ****     }
  61:src/MemoryAllocator.cpp **** 
  62:src/MemoryAllocator.cpp ****     // insert after current
  63:src/MemoryAllocator.cpp ****     node->prev = cur;
 234              		.loc 1 63 5 is_stmt 1
 235              		.loc 1 63 16 is_stmt 0
 236 0140 2330E500 		sd	a4,0(a0)
  64:src/MemoryAllocator.cpp ****     if (cur != nullptr) {
 237              		.loc 1 64 5 is_stmt 1
 238 0144 63080702 		beqz	a4,.L19
  65:src/MemoryAllocator.cpp ****         node->next = cur->next;
 239              		.loc 1 65 9
 240              		.loc 1 65 27 is_stmt 0
 241 0148 83378700 		ld	a5,8(a4)
 242              		.loc 1 65 20
 243 014c 2334F500 		sd	a5,8(a0)
  66:src/MemoryAllocator.cpp ****         if (cur->next != nullptr) {
 244              		.loc 1 66 9 is_stmt 1
 245              		.loc 1 66 18 is_stmt 0
 246 0150 83378700 		ld	a5,8(a4)
 247              		.loc 1 66 9
 248 0154 63840700 		beqz	a5,.L20
  67:src/MemoryAllocator.cpp ****             cur->next->prev = node;
 249              		.loc 1 67 13 is_stmt 1
 250              		.loc 1 67 29 is_stmt 0
 251 0158 23B0A700 		sd	a0,0(a5)
 252              	.L20:
  68:src/MemoryAllocator.cpp ****         }
  69:src/MemoryAllocator.cpp ****         cur->next = node;
 253              		.loc 1 69 9 is_stmt 1
 254              		.loc 1 69 19 is_stmt 0
 255 015c 2334A700 		sd	a0,8(a4)
 256 0160 6F000003 		j	.L21
 257              	.LVL15:
 258              	.L12:
 259              	.LBB11:
 260              	.LBB10:
 261              	.LBB8:
 262              	.LBB6:
  41:src/MemoryAllocator.cpp ****             if (cur->next) cur->next->prev = newNode;
GAS LISTING /tmp/cc4mC8hH.s 			page 7


 263              		.loc 1 41 18 is_stmt 1
  41:src/MemoryAllocator.cpp ****             if (cur->next) cur->next->prev = newNode;
 264              		.loc 1 41 28 is_stmt 0
 265 0164 97060000 		sd	a4,.LANCHOR0,a3
 265      23B0E600 
 266 016c 6FF05FF8 		j	.L13
 267              	.LVL16:
 268              	.L16:
 269              	.LBE6:
 270              	.LBE8:
 271              	.LBE10:
 272              	.LBE11:
  63:src/MemoryAllocator.cpp ****     if (cur != nullptr) {
 273              		.loc 1 63 5 is_stmt 1
  63:src/MemoryAllocator.cpp ****     if (cur != nullptr) {
 274              		.loc 1 63 16 is_stmt 0
 275 0170 23300500 		sd	zero,0(a0)
  64:src/MemoryAllocator.cpp ****         node->next = cur->next;
 276              		.loc 1 64 5 is_stmt 1
 277              	.LVL17:
 278              	.L19:
  70:src/MemoryAllocator.cpp ****     } else {
  71:src/MemoryAllocator.cpp ****         node->next = allocated_head;
 279              		.loc 1 71 9
 280              		.loc 1 71 20 is_stmt 0
 281 0174 97070000 		ld	a5,.LANCHOR0+8
 281      83B70700 
 282 017c 2334F500 		sd	a5,8(a0)
  72:src/MemoryAllocator.cpp ****         if (allocated_head != nullptr) {
 283              		.loc 1 72 9 is_stmt 1
 284 0180 63840700 		beqz	a5,.L22
  73:src/MemoryAllocator.cpp ****             allocated_head->prev = node;
 285              		.loc 1 73 13
 286              		.loc 1 73 34 is_stmt 0
 287 0184 23B0A700 		sd	a0,0(a5)
 288              	.L22:
  74:src/MemoryAllocator.cpp ****         }
  75:src/MemoryAllocator.cpp ****         allocated_head = node;
 289              		.loc 1 75 9 is_stmt 1
 290              		.loc 1 75 24 is_stmt 0
 291 0188 97070000 		sd	a0,.LANCHOR0+8,a5
 291      23B0A700 
 292              	.L21:
  76:src/MemoryAllocator.cpp ****     }
  77:src/MemoryAllocator.cpp **** //    node->prev = cur;
  78:src/MemoryAllocator.cpp **** //    if (cur) node->next = cur->next;
  79:src/MemoryAllocator.cpp **** //    else node->next = allocated_head;
  80:src/MemoryAllocator.cpp **** //    if (node->next) node->next->prev = node;
  81:src/MemoryAllocator.cpp **** //    if (cur) cur->next = node;
  82:src/MemoryAllocator.cpp **** //    else allocated_head = node;
  83:src/MemoryAllocator.cpp ****     counter++;
 293              		.loc 1 83 5 is_stmt 1
 294              		.loc 1 83 12 is_stmt 0
 295 0190 17070000 		lla	a4,.LANCHOR0
 295      13070700 
 296 0198 83270701 		lw	a5,16(a4)
 297 019c 9B871700 		addiw	a5,a5,1
GAS LISTING /tmp/cc4mC8hH.s 			page 8


 298 01a0 2328F700 		sw	a5,16(a4)
  84:src/MemoryAllocator.cpp ****     return (void*) ((char*) node + sizeof(MemDesc));
 299              		.loc 1 84 5 is_stmt 1
 300              		.loc 1 84 51 is_stmt 0
 301 01a4 13058501 		addi	a0,a0,24
 302              	.LVL18:
 303              	.L3:
  85:src/MemoryAllocator.cpp **** }
 304              		.loc 1 85 1
 305 01a8 03348100 		ld	s0,8(sp)
 306              		.cfi_remember_state
 307              		.cfi_restore 8
 308              		.cfi_def_cfa 2, 16
 309 01ac 13010101 		addi	sp,sp,16
 310              		.cfi_def_cfa_offset 0
 311 01b0 67800000 		jr	ra
 312              	.LVL19:
 313              	.L15:
 314              		.cfi_restore_state
  63:src/MemoryAllocator.cpp ****     if (cur != nullptr) {
 315              		.loc 1 63 5 is_stmt 1
  63:src/MemoryAllocator.cpp ****     if (cur != nullptr) {
 316              		.loc 1 63 16 is_stmt 0
 317 01b4 23300500 		sd	zero,0(a0)
  64:src/MemoryAllocator.cpp ****         node->next = cur->next;
 318              		.loc 1 64 5 is_stmt 1
 319 01b8 6FF0DFFB 		j	.L19
 320              		.cfi_endproc
 321              	.LFE1:
 323              		.align	2
 324              		.globl	_ZN15MemoryAllocator8mem_freeEPv
 326              	_ZN15MemoryAllocator8mem_freeEPv:
 327              	.LFB2:
  86:src/MemoryAllocator.cpp **** 
  87:src/MemoryAllocator.cpp **** // Preuzeto sa kolokvijuma septembar 2015. zadatak 2.
  88:src/MemoryAllocator.cpp **** int MemoryAllocator::mem_free(void *ptr) {
 328              		.loc 1 88 42
 329              		.cfi_startproc
 330              	.LVL20:
  89:src/MemoryAllocator.cpp ****     if (!ptr || !allocated_head) return -1;
 331              		.loc 1 89 5
 332 01bc 63020514 		beqz	a0,.L42
 333 01c0 13070500 		mv	a4,a0
 334              		.loc 1 89 17 is_stmt 0 discriminator 2
 335 01c4 97060000 		ld	a3,.LANCHOR0+8
 335      83B60600 
 336              		.loc 1 89 14 discriminator 2
 337 01cc 638E0612 		beqz	a3,.L43
  90:src/MemoryAllocator.cpp ****     ptr = (char*) ptr - sizeof(MemDesc);
 338              		.loc 1 90 5 is_stmt 1
 339              		.loc 1 90 9 is_stmt 0
 340 01d0 130585FE 		addi	a0,a0,-24
 341              	.LVL21:
  91:src/MemoryAllocator.cpp ****     MemDesc* cur;
 342              		.loc 1 91 5 is_stmt 1
  92:src/MemoryAllocator.cpp **** 
  93:src/MemoryAllocator.cpp ****     // find ptr in allocated memory and remove it
GAS LISTING /tmp/cc4mC8hH.s 			page 9


  94:src/MemoryAllocator.cpp ****     for(cur = allocated_head; cur != (MemDesc*) ptr && cur != nullptr; cur=cur->next);
 343              		.loc 1 94 5
 344              		.loc 1 94 13 is_stmt 0
 345 01d4 93870600 		mv	a5,a3
 346              	.LVL22:
 347              	.L28:
 348              		.loc 1 94 53 is_stmt 1 discriminator 4
 349 01d8 6388A700 		beq	a5,a0,.L27
 350              		.loc 1 94 53 is_stmt 0 discriminator 2
 351 01dc 63860700 		beqz	a5,.L27
 352              		.loc 1 94 5 is_stmt 1 discriminator 3
 353              		.loc 1 94 75 is_stmt 0 discriminator 3
 354 01e0 83B78700 		ld	a5,8(a5)
 355              	.LVL23:
 356              		.loc 1 94 5 discriminator 3
 357 01e4 6FF05FFF 		j	.L28
 358              	.L27:
  95:src/MemoryAllocator.cpp **** 
  96:src/MemoryAllocator.cpp ****     if (cur) {
 359              		.loc 1 96 5 is_stmt 1
 360 01e8 63840712 		beqz	a5,.L44
  88:src/MemoryAllocator.cpp ****     if (!ptr || !allocated_head) return -1;
 361              		.loc 1 88 42 is_stmt 0
 362 01ec 130101FE 		addi	sp,sp,-32
 363              		.cfi_def_cfa_offset 32
 364 01f0 233C1100 		sd	ra,24(sp)
 365 01f4 23388100 		sd	s0,16(sp)
 366 01f8 23349100 		sd	s1,8(sp)
 367              		.cfi_offset 1, -8
 368              		.cfi_offset 8, -16
 369              		.cfi_offset 9, -24
 370 01fc 13040102 		addi	s0,sp,32
 371              		.cfi_def_cfa 8, 0
  97:src/MemoryAllocator.cpp ****         // ptr found, delete ptr from list
  98:src/MemoryAllocator.cpp ****         if (cur == allocated_head) {
 372              		.loc 1 98 9 is_stmt 1
 373 0200 638AF604 		beq	a3,a5,.L50
  99:src/MemoryAllocator.cpp ****             if (cur->next) cur->next->prev = nullptr;
 100:src/MemoryAllocator.cpp ****             cur = cur->next;
 101:src/MemoryAllocator.cpp ****             allocated_head = cur;
 102:src/MemoryAllocator.cpp ****         }
 103:src/MemoryAllocator.cpp ****         else if (!cur->next) {
 374              		.loc 1 103 14
 375              		.loc 1 103 24 is_stmt 0
 376 0204 83B68700 		ld	a3,8(a5)
 377              		.loc 1 103 14
 378 0208 63840606 		beqz	a3,.L51
 104:src/MemoryAllocator.cpp ****             cur->prev->next = nullptr;
 105:src/MemoryAllocator.cpp ****         }
 106:src/MemoryAllocator.cpp ****         else {
 107:src/MemoryAllocator.cpp ****             cur->next->prev = cur->prev;
 379              		.loc 1 107 13 is_stmt 1
 380              		.loc 1 107 36 is_stmt 0
 381 020c 03B60700 		ld	a2,0(a5)
 382              		.loc 1 107 29
 383 0210 23B0C600 		sd	a2,0(a3)
 108:src/MemoryAllocator.cpp ****             cur->prev->next = cur->next;
GAS LISTING /tmp/cc4mC8hH.s 			page 10


 384              		.loc 1 108 13 is_stmt 1
 385              		.loc 1 108 36 is_stmt 0
 386 0214 83B78700 		ld	a5,8(a5)
 387              	.LVL24:
 388              		.loc 1 108 29
 389 0218 2334F600 		sd	a5,8(a2)
 390              	.L31:
 109:src/MemoryAllocator.cpp ****         }
 110:src/MemoryAllocator.cpp ****     }
 111:src/MemoryAllocator.cpp ****     else {
 112:src/MemoryAllocator.cpp ****         // ptr not found
 113:src/MemoryAllocator.cpp ****         return -1;
 114:src/MemoryAllocator.cpp ****     }
 115:src/MemoryAllocator.cpp **** 
 116:src/MemoryAllocator.cpp ****     // insert node in free memory
 117:src/MemoryAllocator.cpp ****     if (!free_head || ((char*)ptr < (char*)free_head))
 391              		.loc 1 117 5 is_stmt 1
 392              		.loc 1 117 9 is_stmt 0
 393 021c 97040000 		ld	s1,.LANCHOR0
 393      83B40400 
 394              		.loc 1 117 5
 395 0224 6380040C 		beqz	s1,.L33
 396              		.loc 1 117 20 discriminator 1
 397 0228 636A9504 		bgtu	s1,a0,.L34
 398              	.L36:
 399              	.LVL25:
 118:src/MemoryAllocator.cpp ****         cur = nullptr; // insert as the first
 119:src/MemoryAllocator.cpp ****     else {
 120:src/MemoryAllocator.cpp ****         for(cur = free_head; cur->next != nullptr && (char*)ptr > (char*)(cur->next);
 400              		.loc 1 120 51 is_stmt 1 discriminator 1
 401 022c 93870400 		mv	a5,s1
 402              		.loc 1 120 35 is_stmt 0 discriminator 1
 403 0230 83B48400 		ld	s1,8(s1)
 404              	.LVL26:
 405              		.loc 1 120 51 discriminator 1
 406 0234 63840400 		beqz	s1,.L35
 407              		.loc 1 120 51 discriminator 2
 408 0238 E3EAA4FE 		bltu	s1,a0,.L36
 409              	.L35:
 121:src/MemoryAllocator.cpp ****         cur = cur->next);
 122:src/MemoryAllocator.cpp ****     }
 123:src/MemoryAllocator.cpp **** 
 124:src/MemoryAllocator.cpp ****     // insert after current
 125:src/MemoryAllocator.cpp ****     MemDesc* newNode = (MemDesc*) ptr;
 410              		.loc 1 125 5 is_stmt 1
 411              	.LVL27:
 126:src/MemoryAllocator.cpp ****     newNode->prev = cur;
 412              		.loc 1 126 5
 413              		.loc 1 126 19 is_stmt 0
 414 023c 2334F7FE 		sd	a5,-24(a4)
 127:src/MemoryAllocator.cpp ****     if (cur) newNode->next = cur->next;
 415              		.loc 1 127 5 is_stmt 1
 416 0240 6386070A 		beqz	a5,.L45
 417              		.loc 1 127 14 discriminator 1
 418              		.loc 1 127 35 is_stmt 0 discriminator 1
 419 0244 83B68700 		ld	a3,8(a5)
 420              		.loc 1 127 28 discriminator 1
GAS LISTING /tmp/cc4mC8hH.s 			page 11


 421 0248 2338D7FE 		sd	a3,-16(a4)
 422 024c 93840700 		mv	s1,a5
 423 0250 6F000004 		j	.L38
 424              	.LVL28:
 425              	.L50:
  99:src/MemoryAllocator.cpp ****             cur = cur->next;
 426              		.loc 1 99 13 is_stmt 1
  99:src/MemoryAllocator.cpp ****             cur = cur->next;
 427              		.loc 1 99 22 is_stmt 0
 428 0254 83B68700 		ld	a3,8(a5)
  99:src/MemoryAllocator.cpp ****             cur = cur->next;
 429              		.loc 1 99 13
 430 0258 63840600 		beqz	a3,.L30
  99:src/MemoryAllocator.cpp ****             cur = cur->next;
 431              		.loc 1 99 28 is_stmt 1 discriminator 1
  99:src/MemoryAllocator.cpp ****             cur = cur->next;
 432              		.loc 1 99 44 is_stmt 0 discriminator 1
 433 025c 23B00600 		sd	zero,0(a3)
 434              	.L30:
 100:src/MemoryAllocator.cpp ****             allocated_head = cur;
 435              		.loc 1 100 13 is_stmt 1
 100:src/MemoryAllocator.cpp ****             allocated_head = cur;
 436              		.loc 1 100 17 is_stmt 0
 437 0260 83B78700 		ld	a5,8(a5)
 438              	.LVL29:
 101:src/MemoryAllocator.cpp ****         }
 439              		.loc 1 101 13 is_stmt 1
 101:src/MemoryAllocator.cpp ****         }
 440              		.loc 1 101 28 is_stmt 0
 441 0264 97060000 		sd	a5,.LANCHOR0+8,a3
 441      23B0F600 
 442 026c 6FF01FFB 		j	.L31
 443              	.L51:
 104:src/MemoryAllocator.cpp ****         }
 444              		.loc 1 104 13 is_stmt 1
 104:src/MemoryAllocator.cpp ****         }
 445              		.loc 1 104 18 is_stmt 0
 446 0270 83B70700 		ld	a5,0(a5)
 447              	.LVL30:
 104:src/MemoryAllocator.cpp ****         }
 448              		.loc 1 104 29
 449 0274 23B40700 		sd	zero,8(a5)
 450 0278 6FF05FFA 		j	.L31
 451              	.L34:
 452              	.LVL31:
 125:src/MemoryAllocator.cpp ****     newNode->prev = cur;
 453              		.loc 1 125 5 is_stmt 1
 126:src/MemoryAllocator.cpp ****     if (cur) newNode->next = cur->next;
 454              		.loc 1 126 5
 126:src/MemoryAllocator.cpp ****     if (cur) newNode->next = cur->next;
 455              		.loc 1 126 19 is_stmt 0
 456 027c 233407FE 		sd	zero,-24(a4)
 457              		.loc 1 127 5 is_stmt 1
 118:src/MemoryAllocator.cpp ****     else {
 458              		.loc 1 118 13 is_stmt 0
 459 0280 93040000 		li	s1,0
 460              	.LVL32:
GAS LISTING /tmp/cc4mC8hH.s 			page 12


 461              	.L37:
 128:src/MemoryAllocator.cpp ****     else newNode->next = free_head;
 462              		.loc 1 128 10 is_stmt 1
 463              		.loc 1 128 24 is_stmt 0
 464 0284 97070000 		ld	a5,.LANCHOR0
 464      83B70700 
 465 028c 2338F7FE 		sd	a5,-16(a4)
 466              	.L38:
 129:src/MemoryAllocator.cpp ****     if (newNode->next) newNode->next->prev = newNode;
 467              		.loc 1 129 5 is_stmt 1
 468              		.loc 1 129 18 is_stmt 0
 469 0290 833707FF 		ld	a5,-16(a4)
 470              		.loc 1 129 5
 471 0294 63840700 		beqz	a5,.L39
 472              		.loc 1 129 24 is_stmt 1 discriminator 1
 473              		.loc 1 129 44 is_stmt 0 discriminator 1
 474 0298 23B0A700 		sd	a0,0(a5)
 475              	.L39:
 130:src/MemoryAllocator.cpp ****     if (cur) cur->next = newNode;
 476              		.loc 1 130 5 is_stmt 1
 477 029c 638C0404 		beqz	s1,.L40
 478              		.loc 1 130 14 discriminator 1
 479              		.loc 1 130 24 is_stmt 0 discriminator 1
 480 02a0 23B4A400 		sd	a0,8(s1)
 481              	.L41:
 131:src/MemoryAllocator.cpp ****     else free_head = newNode;
 132:src/MemoryAllocator.cpp **** 
 133:src/MemoryAllocator.cpp **** 
 134:src/MemoryAllocator.cpp ****     // try to merge two segments
 135:src/MemoryAllocator.cpp ****     tryToJoin(newNode);
 482              		.loc 1 135 5 is_stmt 1
 483              		.loc 1 135 14 is_stmt 0
 484 02a4 97000000 		call	_Z9tryToJoinP7MemDesc@plt
 484      E7800000 
 485              	.LVL33:
 136:src/MemoryAllocator.cpp ****     tryToJoin(cur);
 486              		.loc 1 136 5 is_stmt 1
 487              		.loc 1 136 14 is_stmt 0
 488 02ac 13850400 		mv	a0,s1
 489 02b0 97000000 		call	_Z9tryToJoinP7MemDesc@plt
 489      E7800000 
 490              	.LVL34:
 137:src/MemoryAllocator.cpp ****     counter--;
 491              		.loc 1 137 5 is_stmt 1
 492              		.loc 1 137 12 is_stmt 0
 493 02b8 17070000 		lla	a4,.LANCHOR0
 493      13070700 
 494 02c0 83270701 		lw	a5,16(a4)
 495 02c4 9B87F7FF 		addiw	a5,a5,-1
 496 02c8 2328F700 		sw	a5,16(a4)
 138:src/MemoryAllocator.cpp ****     return 0;
 497              		.loc 1 138 5 is_stmt 1
 498              		.loc 1 138 12 is_stmt 0
 499 02cc 13050000 		li	a0,0
 139:src/MemoryAllocator.cpp **** }...
 500              		.loc 1 139 1
 501 02d0 83308101 		ld	ra,24(sp)
GAS LISTING /tmp/cc4mC8hH.s 			page 13


 502              		.cfi_remember_state
 503              		.cfi_restore 1
 504 02d4 03340101 		ld	s0,16(sp)
 505              		.cfi_restore 8
 506              		.cfi_def_cfa 2, 32
 507 02d8 83348100 		ld	s1,8(sp)
 508              		.cfi_restore 9
 509 02dc 13010102 		addi	sp,sp,32
 510              		.cfi_def_cfa_offset 0
 511 02e0 67800000 		jr	ra
 512              	.LVL35:
 513              	.L33:
 514              		.cfi_restore_state
 125:src/MemoryAllocator.cpp ****     MemDesc* newNode = (MemDesc*) ptr;
 515              		.loc 1 125 5 is_stmt 1
 126:src/MemoryAllocator.cpp ****     newNode->prev = cur;
 516              		.loc 1 126 5
 126:src/MemoryAllocator.cpp ****     newNode->prev = cur;
 517              		.loc 1 126 19 is_stmt 0
 518 02e4 233407FE 		sd	zero,-24(a4)
 127:src/MemoryAllocator.cpp ****     if (cur) newNode->next = cur->next;
 519              		.loc 1 127 5 is_stmt 1
 520 02e8 6FF0DFF9 		j	.L37
 521              	.LVL36:
 522              	.L45:
 523 02ec 93840700 		mv	s1,a5
 524 02f0 6FF05FF9 		j	.L37
 525              	.LVL37:
 526              	.L40:
 131:src/MemoryAllocator.cpp ****     else free_head = newNode;
 527              		.loc 1 131 10
 131:src/MemoryAllocator.cpp ****     else free_head = newNode;
 528              		.loc 1 131 20 is_stmt 0
 529 02f4 97070000 		sd	a0,.LANCHOR0,a5
 529      23B0A700 
 530 02fc 6FF09FFA 		j	.L41
 531              	.LVL38:
 532              	.L42:
 533              		.cfi_def_cfa_register 2
 534              		.cfi_restore 1
 535              		.cfi_restore 8
 536              		.cfi_restore 9
  89:src/MemoryAllocator.cpp ****     if (!ptr || !allocated_head) return -1;
 537              		.loc 1 89 42
 538 0300 1305F0FF 		li	a0,-1
 539              	.LVL39:
 540 0304 67800000 		ret
 541              	.LVL40:
 542              	.L43:
 543 0308 1305F0FF 		li	a0,-1
 544              	.LVL41:
 545 030c 67800000 		ret
 546              	.LVL42:
 547              	.L44:
 113:src/MemoryAllocator.cpp ****         return -1;
 548              		.loc 1 113 17
 549 0310 1305F0FF 		li	a0,-1
GAS LISTING /tmp/cc4mC8hH.s 			page 14


 550              	.LVL43:
 551              		.loc 1 139 1
 552 0314 67800000 		ret
 553              		.cfi_endproc
 554              	.LFE2:
 556              		.globl	_ZN15MemoryAllocator7counterE
 557              		.globl	_ZN15MemoryAllocator14allocated_headE
 558              		.globl	_ZN15MemoryAllocator9free_headE
 559              		.bss
 560              		.align	3
 561              		.set	.LANCHOR0,. + 0
 564              	_ZN15MemoryAllocator9free_headE:
 565 0000 00000000 		.zero	8
 565      00000000 
 568              	_ZN15MemoryAllocator14allocated_headE:
 569 0008 00000000 		.zero	8
 569      00000000 
 572              	_ZN15MemoryAllocator7counterE:
 573 0010 00000000 		.zero	4
 574              		.text
 575              	.Letext0:
 576              		.file 2 "src/../h/../lib/hw.h"
 577              		.file 3 "src/../h/../h/MemDesc.hpp"
 578              		.file 4 "src/../h/MemoryAllocator.hpp"
GAS LISTING /tmp/cc4mC8hH.s 			page 15

