GAS LISTING /tmp/ccq61UL6.s 			page 1


   1              		.file	"syscall_c.cpp"
   2              		.option pic
   3              		.option norelax
   4              		.text
   5              	.Ltext0:
   6              		.align	2
   7              		.globl	_Z10abiInvokeriz
   9              	_Z10abiInvokeriz:
  10              	.LFB0:
  11              		.file 1 "src/syscall_c.cpp"
   1:src/syscall_c.cpp **** //
   2:src/syscall_c.cpp **** // Created by Danilo on 5/28/23.
   3:src/syscall_c.cpp **** //
   4:src/syscall_c.cpp **** 
   5:src/syscall_c.cpp **** #include "../h/syscall_c.hpp"
   6:src/syscall_c.cpp **** #include "../h/ABICodes.hpp"
   7:src/syscall_c.cpp **** #include "../h/printing.hpp"
   8:src/syscall_c.cpp **** #include "../lib/console.h"
   9:src/syscall_c.cpp **** 
  10:src/syscall_c.cpp **** void abiInvoker(int serviceID, ...) {
  12              		.loc 1 10 37
  13              		.cfi_startproc
  14              	.LVL0:
  15 0000 130101FB 		addi	sp,sp,-80
  16              		.cfi_def_cfa_offset 80
  17 0004 23348100 		sd	s0,8(sp)
  18              		.cfi_offset 8, -72
  19 0008 13040101 		addi	s0,sp,16
  20              		.cfi_def_cfa 8, 64
  21 000c 2334B400 		sd	a1,8(s0)
  22 0010 2338C400 		sd	a2,16(s0)
  23 0014 233CD400 		sd	a3,24(s0)
  24 0018 2330E402 		sd	a4,32(s0)
  25 001c 2334F402 		sd	a5,40(s0)
  26 0020 23380403 		sd	a6,48(s0)
  27 0024 233C1403 		sd	a7,56(s0)
  11:src/syscall_c.cpp ****     __asm__ volatile("ecall");
  28              		.loc 1 11 5
  29              		.loc 1 11 30 is_stmt 0
  30              	#APP
  31              	# 11 "src/syscall_c.cpp" 1
  12              	}
  32              		ecall
  33              	# 0 "" 2
  34              		.loc 1 12 1
  35              	#NO_APP
  36 002c 03348100 		ld	s0,8(sp)
  37              		.cfi_restore 8
  38              		.cfi_def_cfa 2, 80
  39 0030 13010105 		addi	sp,sp,80
  40              		.cfi_def_cfa_offset 0
  41 0034 67800000 		jr	ra
  42              		.cfi_endproc
  43              	.LFE0:
  45              		.align	2
  46              		.globl	_Z9mem_allocm
  48              	_Z9mem_allocm:
GAS LISTING /tmp/ccq61UL6.s 			page 2


  49              	.LFB1:
  13:src/syscall_c.cpp **** 
  14:src/syscall_c.cpp **** void* mem_alloc (size_t size) {
  50              		.loc 1 14 31 is_stmt 1
  51              		.cfi_startproc
  52              	.LVL1:
  15:src/syscall_c.cpp ****     if (!size) return nullptr;
  53              		.loc 1 15 5
  54 0038 63060504 		beqz	a0,.L7
  14:src/syscall_c.cpp ****     if (!size) return nullptr;
  55              		.loc 1 14 31 is_stmt 0
  56 003c 130101FF 		addi	sp,sp,-16
  57              		.cfi_def_cfa_offset 16
  58 0040 23341100 		sd	ra,8(sp)
  59 0044 23308100 		sd	s0,0(sp)
  60              		.cfi_offset 1, -8
  61              		.cfi_offset 8, -16
  62 0048 13040101 		addi	s0,sp,16
  63              		.cfi_def_cfa 8, 0
  16:src/syscall_c.cpp ****     size_t blks = (size % MEM_BLOCK_SIZE == 0) ? (size / MEM_BLOCK_SIZE) : (size / MEM_BLOCK_SIZE) 
  64              		.loc 1 16 5 is_stmt 1
  65              		.loc 1 16 25 is_stmt 0
  66 004c 9377F503 		andi	a5,a0,63
  67              		.loc 1 16 48
  68 0050 63940702 		bnez	a5,.L5
  69              		.loc 1 16 48 discriminator 1
  70 0054 93556500 		srli	a1,a0,6
  71              	.LVL2:
  72              	.L6:
  17:src/syscall_c.cpp ****     abiInvoker(MEM_ALLOC, blks);
  73              		.loc 1 17 5 is_stmt 1 discriminator 4
  74              		.loc 1 17 15 is_stmt 0 discriminator 4
  75 0058 13051000 		li	a0,1
  76 005c 97000000 		call	_Z10abiInvokeriz
  76      E7800000 
  77              	.LVL3:
  18:src/syscall_c.cpp ****     uint64 ret;
  78              		.loc 1 18 5 is_stmt 1 discriminator 4
  19:src/syscall_c.cpp ****     __asm__ volatile ("mv %0, a0" : "=r" (ret));
  79              		.loc 1 19 5 discriminator 4
  80              		.loc 1 19 48 is_stmt 0 discriminator 4
  81              	#APP
  82              	# 19 "src/syscall_c.cpp" 1
  20              	    return (void*) ret;
  83              		mv a0, a0
  84              	# 0 "" 2
  85              	.LVL4:
  86              		.loc 1 20 5 is_stmt 1 discriminator 4
  21:src/syscall_c.cpp **** }
  87              		.loc 1 21 1 is_stmt 0 discriminator 4
  88              	#NO_APP
  89 0068 83308100 		ld	ra,8(sp)
  90              		.cfi_remember_state
  91              		.cfi_restore 1
  92 006c 03340100 		ld	s0,0(sp)
  93              		.cfi_restore 8
  94              		.cfi_def_cfa 2, 16
GAS LISTING /tmp/ccq61UL6.s 			page 3


  95 0070 13010101 		addi	sp,sp,16
  96              		.cfi_def_cfa_offset 0
  97 0074 67800000 		jr	ra
  98              	.LVL5:
  99              	.L5:
 100              		.cfi_restore_state
  16:src/syscall_c.cpp ****     abiInvoker(MEM_ALLOC, blks);
 101              		.loc 1 16 82 discriminator 2
 102 0078 13556500 		srli	a0,a0,6
 103              	.LVL6:
  16:src/syscall_c.cpp ****     abiInvoker(MEM_ALLOC, blks);
 104              		.loc 1 16 48 discriminator 2
 105 007c 93051500 		addi	a1,a0,1
 106 0080 6FF09FFD 		j	.L6
 107              	.LVL7:
 108              	.L7:
 109              		.cfi_def_cfa_register 2
 110              		.cfi_restore 1
 111              		.cfi_restore 8
  15:src/syscall_c.cpp ****     size_t blks = (size % MEM_BLOCK_SIZE == 0) ? (size / MEM_BLOCK_SIZE) : (size / MEM_BLOCK_SIZE) 
 112              		.loc 1 15 23
 113 0084 13050000 		li	a0,0
 114              	.LVL8:
 115              		.loc 1 21 1
 116 0088 67800000 		ret
 117              		.cfi_endproc
 118              	.LFE1:
 120              		.align	2
 121              		.globl	_Z8mem_freePv
 123              	_Z8mem_freePv:
 124              	.LFB2:
  22:src/syscall_c.cpp **** 
  23:src/syscall_c.cpp **** int mem_free (void* p) {
 125              		.loc 1 23 24 is_stmt 1
 126              		.cfi_startproc
 127              	.LVL9:
  24:src/syscall_c.cpp ****     if (!p) return -1;
 128              		.loc 1 24 5
 129 008c 630E0502 		beqz	a0,.L14
  23:src/syscall_c.cpp ****     if (!p) return -1;
 130              		.loc 1 23 24 is_stmt 0
 131 0090 130101FF 		addi	sp,sp,-16
 132              		.cfi_def_cfa_offset 16
 133 0094 23341100 		sd	ra,8(sp)
 134 0098 23308100 		sd	s0,0(sp)
 135              		.cfi_offset 1, -8
 136              		.cfi_offset 8, -16
 137 009c 13040101 		addi	s0,sp,16
 138              		.cfi_def_cfa 8, 0
 139 00a0 93050500 		mv	a1,a0
  25:src/syscall_c.cpp ****     abiInvoker(MEM_FREE, p);
 140              		.loc 1 25 5 is_stmt 1
 141              		.loc 1 25 15 is_stmt 0
 142 00a4 13052000 		li	a0,2
 143              	.LVL10:
 144 00a8 97000000 		call	_Z10abiInvokeriz
 144      E7800000 
GAS LISTING /tmp/ccq61UL6.s 			page 4


 145              	.LVL11:
  26:src/syscall_c.cpp ****     uint64 ret;
 146              		.loc 1 26 5 is_stmt 1
  27:src/syscall_c.cpp ****     __asm__ volatile ("mv %0, a0" : "=r" (ret));
 147              		.loc 1 27 5
 148              		.loc 1 27 48 is_stmt 0
 149              	#APP
 150              	# 27 "src/syscall_c.cpp" 1
  28              	    return (int) ret;
 151              		mv a0, a0
 152              	# 0 "" 2
 153              	.LVL12:
 154              		.loc 1 28 5 is_stmt 1
 155              		.loc 1 28 18 is_stmt 0
 156              	#NO_APP
 157 00b4 1B050500 		sext.w	a0,a0
 158              	.LVL13:
  29:src/syscall_c.cpp **** }
 159              		.loc 1 29 1
 160 00b8 83308100 		ld	ra,8(sp)
 161              		.cfi_restore 1
 162 00bc 03340100 		ld	s0,0(sp)
 163              		.cfi_restore 8
 164              		.cfi_def_cfa 2, 16
 165 00c0 13010101 		addi	sp,sp,16
 166              		.cfi_def_cfa_offset 0
 167 00c4 67800000 		jr	ra
 168              	.LVL14:
 169              	.L14:
  24:src/syscall_c.cpp ****     abiInvoker(MEM_FREE, p);
 170              		.loc 1 24 21
 171 00c8 1305F0FF 		li	a0,-1
 172              	.LVL15:
 173              		.loc 1 29 1
 174 00cc 67800000 		ret
 175              		.cfi_endproc
 176              	.LFE2:
 178              		.align	2
 179              		.globl	_Z13thread_createPP7_threadPFvPvES2_
 181              	_Z13thread_createPP7_threadPFvPvES2_:
 182              	.LFB3:
  30:src/syscall_c.cpp **** 
  31:src/syscall_c.cpp **** int thread_create (thread_t* handle, void(*start_routine)(void*), void* arg) {
 183              		.loc 1 31 78 is_stmt 1
 184              		.cfi_startproc
 185              	.LVL16:
  32:src/syscall_c.cpp ****     if (!handle) return -1;
 186              		.loc 1 32 5
 187 00d0 63040504 		beqz	a0,.L21
 188 00d4 93060600 		mv	a3,a2
  33:src/syscall_c.cpp ****     if (!start_routine) return -1;
 189              		.loc 1 33 5
 190 00d8 63840504 		beqz	a1,.L22
  31:src/syscall_c.cpp ****     if (!handle) return -1;
 191              		.loc 1 31 78 is_stmt 0
 192 00dc 130101FF 		addi	sp,sp,-16
 193              		.cfi_def_cfa_offset 16
GAS LISTING /tmp/ccq61UL6.s 			page 5


 194 00e0 23341100 		sd	ra,8(sp)
 195 00e4 23308100 		sd	s0,0(sp)
 196              		.cfi_offset 1, -8
 197              		.cfi_offset 8, -16
 198 00e8 13040101 		addi	s0,sp,16
 199              		.cfi_def_cfa 8, 0
  34:src/syscall_c.cpp ****     abiInvoker(THREAD_CREATE, handle, start_routine, arg);
 200              		.loc 1 34 5 is_stmt 1
 201              		.loc 1 34 15 is_stmt 0
 202 00ec 13860500 		mv	a2,a1
 203              	.LVL17:
 204 00f0 93050500 		mv	a1,a0
 205              	.LVL18:
 206 00f4 13051001 		li	a0,17
 207              	.LVL19:
 208 00f8 97000000 		call	_Z10abiInvokeriz
 208      E7800000 
 209              	.LVL20:
  35:src/syscall_c.cpp ****     uint64 ret;
 210              		.loc 1 35 5 is_stmt 1
  36:src/syscall_c.cpp ****     __asm__ volatile ("mv %0, a0" : "=r" (ret));
 211              		.loc 1 36 5
 212              		.loc 1 36 48 is_stmt 0
 213              	#APP
 214              	# 36 "src/syscall_c.cpp" 1
  37              	    return (int) ret;
 215              		mv a0, a0
 216              	# 0 "" 2
 217              	.LVL21:
 218              		.loc 1 37 5 is_stmt 1
 219              		.loc 1 37 18 is_stmt 0
 220              	#NO_APP
 221 0104 1B050500 		sext.w	a0,a0
 222              	.LVL22:
  38:src/syscall_c.cpp **** }
 223              		.loc 1 38 1
 224 0108 83308100 		ld	ra,8(sp)
 225              		.cfi_restore 1
 226 010c 03340100 		ld	s0,0(sp)
 227              		.cfi_restore 8
 228              		.cfi_def_cfa 2, 16
 229 0110 13010101 		addi	sp,sp,16
 230              		.cfi_def_cfa_offset 0
 231 0114 67800000 		jr	ra
 232              	.LVL23:
 233              	.L21:
  32:src/syscall_c.cpp ****     if (!start_routine) return -1;
 234              		.loc 1 32 26
 235 0118 1305F0FF 		li	a0,-1
 236              	.LVL24:
 237 011c 67800000 		ret
 238              	.LVL25:
 239              	.L22:
  33:src/syscall_c.cpp ****     abiInvoker(THREAD_CREATE, handle, start_routine, arg);
 240              		.loc 1 33 33
 241 0120 1305F0FF 		li	a0,-1
 242              	.LVL26:
GAS LISTING /tmp/ccq61UL6.s 			page 6


 243              		.loc 1 38 1
 244 0124 67800000 		ret
 245              		.cfi_endproc
 246              	.LFE3:
 248              		.align	2
 249              		.globl	_Z11thread_onlyPP7_threadPFvPvES2_
 251              	_Z11thread_onlyPP7_threadPFvPvES2_:
 252              	.LFB4:
  39:src/syscall_c.cpp **** 
  40:src/syscall_c.cpp **** int thread_only (thread_t* handle, void(*start_routine)(void*), void* arg) {
 253              		.loc 1 40 76 is_stmt 1
 254              		.cfi_startproc
 255              	.LVL27:
  41:src/syscall_c.cpp ****     if (!handle) return -1;
 256              		.loc 1 41 5
 257 0128 63040504 		beqz	a0,.L29
 258 012c 93060600 		mv	a3,a2
  42:src/syscall_c.cpp ****     if (!start_routine) return -1;
 259              		.loc 1 42 5
 260 0130 63840504 		beqz	a1,.L30
  40:src/syscall_c.cpp ****     if (!handle) return -1;
 261              		.loc 1 40 76 is_stmt 0
 262 0134 130101FF 		addi	sp,sp,-16
 263              		.cfi_def_cfa_offset 16
 264 0138 23341100 		sd	ra,8(sp)
 265 013c 23308100 		sd	s0,0(sp)
 266              		.cfi_offset 1, -8
 267              		.cfi_offset 8, -16
 268 0140 13040101 		addi	s0,sp,16
 269              		.cfi_def_cfa 8, 0
  43:src/syscall_c.cpp ****     abiInvoker(THREAD_ONLY, handle, start_routine, arg);
 270              		.loc 1 43 5 is_stmt 1
 271              		.loc 1 43 15 is_stmt 0
 272 0144 13860500 		mv	a2,a1
 273              	.LVL28:
 274 0148 93050500 		mv	a1,a0
 275              	.LVL29:
 276 014c 13056001 		li	a0,22
 277              	.LVL30:
 278 0150 97000000 		call	_Z10abiInvokeriz
 278      E7800000 
 279              	.LVL31:
  44:src/syscall_c.cpp ****     uint64 ret;
 280              		.loc 1 44 5 is_stmt 1
  45:src/syscall_c.cpp ****     __asm__ volatile ("mv %0, a0" : "=r" (ret));
 281              		.loc 1 45 5
 282              		.loc 1 45 48 is_stmt 0
 283              	#APP
 284              	# 45 "src/syscall_c.cpp" 1
  46              	    return (int) ret;
 285              		mv a0, a0
 286              	# 0 "" 2
 287              	.LVL32:
 288              		.loc 1 46 5 is_stmt 1
 289              		.loc 1 46 18 is_stmt 0
 290              	#NO_APP
 291 015c 1B050500 		sext.w	a0,a0
GAS LISTING /tmp/ccq61UL6.s 			page 7


 292              	.LVL33:
  47:src/syscall_c.cpp **** }
 293              		.loc 1 47 1
 294 0160 83308100 		ld	ra,8(sp)
 295              		.cfi_restore 1
 296 0164 03340100 		ld	s0,0(sp)
 297              		.cfi_restore 8
 298              		.cfi_def_cfa 2, 16
 299 0168 13010101 		addi	sp,sp,16
 300              		.cfi_def_cfa_offset 0
 301 016c 67800000 		jr	ra
 302              	.LVL34:
 303              	.L29:
  41:src/syscall_c.cpp ****     if (!start_routine) return -1;
 304              		.loc 1 41 26
 305 0170 1305F0FF 		li	a0,-1
 306              	.LVL35:
 307 0174 67800000 		ret
 308              	.LVL36:
 309              	.L30:
  42:src/syscall_c.cpp ****     abiInvoker(THREAD_ONLY, handle, start_routine, arg);
 310              		.loc 1 42 33
 311 0178 1305F0FF 		li	a0,-1
 312              	.LVL37:
 313              		.loc 1 47 1
 314 017c 67800000 		ret
 315              		.cfi_endproc
 316              	.LFE4:
 318              		.align	2
 319              		.globl	_Z12thread_startP7_thread
 321              	_Z12thread_startP7_thread:
 322              	.LFB5:
  48:src/syscall_c.cpp **** 
  49:src/syscall_c.cpp **** int thread_start(thread_t handle) {
 323              		.loc 1 49 35 is_stmt 1
 324              		.cfi_startproc
 325              	.LVL38:
  50:src/syscall_c.cpp ****     if (!handle) return -1;
 326              		.loc 1 50 5
 327 0180 630E0502 		beqz	a0,.L37
  49:src/syscall_c.cpp ****     if (!handle) return -1;
 328              		.loc 1 49 35 is_stmt 0
 329 0184 130101FF 		addi	sp,sp,-16
 330              		.cfi_def_cfa_offset 16
 331 0188 23341100 		sd	ra,8(sp)
 332 018c 23308100 		sd	s0,0(sp)
 333              		.cfi_offset 1, -8
 334              		.cfi_offset 8, -16
 335 0190 13040101 		addi	s0,sp,16
 336              		.cfi_def_cfa 8, 0
 337 0194 93050500 		mv	a1,a0
  51:src/syscall_c.cpp ****     abiInvoker(THREAD_START, handle);
 338              		.loc 1 51 5 is_stmt 1
 339              		.loc 1 51 15 is_stmt 0
 340 0198 13055001 		li	a0,21
 341              	.LVL39:
 342 019c 97000000 		call	_Z10abiInvokeriz
GAS LISTING /tmp/ccq61UL6.s 			page 8


 342      E7800000 
 343              	.LVL40:
  52:src/syscall_c.cpp ****     uint64 ret;
 344              		.loc 1 52 5 is_stmt 1
  53:src/syscall_c.cpp ****     __asm__ volatile ("mv %0, a0" : "=r" (ret));
 345              		.loc 1 53 5
 346              		.loc 1 53 48 is_stmt 0
 347              	#APP
 348              	# 53 "src/syscall_c.cpp" 1
  54              	    return (int) ret;
 349              		mv a0, a0
 350              	# 0 "" 2
 351              	.LVL41:
 352              		.loc 1 54 5 is_stmt 1
 353              		.loc 1 54 18 is_stmt 0
 354              	#NO_APP
 355 01a8 1B050500 		sext.w	a0,a0
 356              	.LVL42:
  55:src/syscall_c.cpp **** }
 357              		.loc 1 55 1
 358 01ac 83308100 		ld	ra,8(sp)
 359              		.cfi_restore 1
 360 01b0 03340100 		ld	s0,0(sp)
 361              		.cfi_restore 8
 362              		.cfi_def_cfa 2, 16
 363 01b4 13010101 		addi	sp,sp,16
 364              		.cfi_def_cfa_offset 0
 365 01b8 67800000 		jr	ra
 366              	.LVL43:
 367              	.L37:
  50:src/syscall_c.cpp ****     abiInvoker(THREAD_START, handle);
 368              		.loc 1 50 26
 369 01bc 1305F0FF 		li	a0,-1
 370              	.LVL44:
 371              		.loc 1 55 1
 372 01c0 67800000 		ret
 373              		.cfi_endproc
 374              	.LFE5:
 376              		.align	2
 377              		.globl	_Z11thread_exitv
 379              	_Z11thread_exitv:
 380              	.LFB6:
  56:src/syscall_c.cpp **** 
  57:src/syscall_c.cpp **** int thread_exit() {
 381              		.loc 1 57 19 is_stmt 1
 382              		.cfi_startproc
 383 01c4 130101FF 		addi	sp,sp,-16
 384              		.cfi_def_cfa_offset 16
 385 01c8 23341100 		sd	ra,8(sp)
 386 01cc 23308100 		sd	s0,0(sp)
 387              		.cfi_offset 1, -8
 388              		.cfi_offset 8, -16
 389 01d0 13040101 		addi	s0,sp,16
 390              		.cfi_def_cfa 8, 0
  58:src/syscall_c.cpp ****     abiInvoker(THREAD_EXIT);
 391              		.loc 1 58 5
 392              		.loc 1 58 15 is_stmt 0
GAS LISTING /tmp/ccq61UL6.s 			page 9


 393 01d4 13052001 		li	a0,18
 394 01d8 97000000 		call	_Z10abiInvokeriz
 394      E7800000 
 395              	.LVL45:
  59:src/syscall_c.cpp ****     uint64 ret;
 396              		.loc 1 59 5 is_stmt 1
  60:src/syscall_c.cpp ****     __asm__ volatile ("mv %0, a0" : "=r" (ret));
 397              		.loc 1 60 5
 398              		.loc 1 60 48 is_stmt 0
 399              	#APP
 400              	# 60 "src/syscall_c.cpp" 1
  61              	    return (int) ret;
 401              		mv a0, a0
 402              	# 0 "" 2
 403              	.LVL46:
 404              		.loc 1 61 5 is_stmt 1
  62:src/syscall_c.cpp **** }
 405              		.loc 1 62 1 is_stmt 0
 406              	#NO_APP
 407 01e4 1B050500 		sext.w	a0,a0
 408              	.LVL47:
 409 01e8 83308100 		ld	ra,8(sp)
 410              		.cfi_restore 1
 411 01ec 03340100 		ld	s0,0(sp)
 412              		.cfi_restore 8
 413              		.cfi_def_cfa 2, 16
 414 01f0 13010101 		addi	sp,sp,16
 415              		.cfi_def_cfa_offset 0
 416 01f4 67800000 		jr	ra
 417              		.cfi_endproc
 418              	.LFE6:
 420              		.align	2
 421              		.globl	_Z15thread_dispatchv
 423              	_Z15thread_dispatchv:
 424              	.LFB7:
  63:src/syscall_c.cpp **** 
  64:src/syscall_c.cpp **** void thread_dispatch () {
 425              		.loc 1 64 25 is_stmt 1
 426              		.cfi_startproc
 427 01f8 130101FF 		addi	sp,sp,-16
 428              		.cfi_def_cfa_offset 16
 429 01fc 23341100 		sd	ra,8(sp)
 430 0200 23308100 		sd	s0,0(sp)
 431              		.cfi_offset 1, -8
 432              		.cfi_offset 8, -16
 433 0204 13040101 		addi	s0,sp,16
 434              		.cfi_def_cfa 8, 0
  65:src/syscall_c.cpp ****     abiInvoker(THREAD_DISPATCH);
 435              		.loc 1 65 5
 436              		.loc 1 65 15 is_stmt 0
 437 0208 13053001 		li	a0,19
 438 020c 97000000 		call	_Z10abiInvokeriz
 438      E7800000 
 439              	.LVL48:
  66:src/syscall_c.cpp **** }
 440              		.loc 1 66 1
 441 0214 83308100 		ld	ra,8(sp)
GAS LISTING /tmp/ccq61UL6.s 			page 10


 442              		.cfi_restore 1
 443 0218 03340100 		ld	s0,0(sp)
 444              		.cfi_restore 8
 445              		.cfi_def_cfa 2, 16
 446 021c 13010101 		addi	sp,sp,16
 447              		.cfi_def_cfa_offset 0
 448 0220 67800000 		jr	ra
 449              		.cfi_endproc
 450              	.LFE7:
 452              		.align	2
 453              		.globl	_Z11thread_joinP7_thread
 455              	_Z11thread_joinP7_thread:
 456              	.LFB8:
  67:src/syscall_c.cpp **** 
  68:src/syscall_c.cpp **** void thread_join (thread_t handle) {
 457              		.loc 1 68 36 is_stmt 1
 458              		.cfi_startproc
 459              	.LVL49:
  69:src/syscall_c.cpp ****     if (!handle) return;
 460              		.loc 1 69 5
 461 0224 630A0502 		beqz	a0,.L49
  68:src/syscall_c.cpp ****     if (!handle) return;
 462              		.loc 1 68 36 is_stmt 0
 463 0228 130101FF 		addi	sp,sp,-16
 464              		.cfi_def_cfa_offset 16
 465 022c 23341100 		sd	ra,8(sp)
 466 0230 23308100 		sd	s0,0(sp)
 467              		.cfi_offset 1, -8
 468              		.cfi_offset 8, -16
 469 0234 13040101 		addi	s0,sp,16
 470              		.cfi_def_cfa 8, 0
 471 0238 93050500 		mv	a1,a0
  70:src/syscall_c.cpp ****     abiInvoker(THREAD_JOIN, handle);
 472              		.loc 1 70 5 is_stmt 1
 473              		.loc 1 70 15 is_stmt 0
 474 023c 13054001 		li	a0,20
 475              	.LVL50:
 476 0240 97000000 		call	_Z10abiInvokeriz
 476      E7800000 
 477              	.LVL51:
  71:src/syscall_c.cpp **** }
 478              		.loc 1 71 1
 479 0248 83308100 		ld	ra,8(sp)
 480              		.cfi_restore 1
 481 024c 03340100 		ld	s0,0(sp)
 482              		.cfi_restore 8
 483              		.cfi_def_cfa 2, 16
 484 0250 13010101 		addi	sp,sp,16
 485              		.cfi_def_cfa_offset 0
 486 0254 67800000 		jr	ra
 487              	.LVL52:
 488              	.L49:
 489 0258 67800000 		ret
 490              		.cfi_endproc
 491              	.LFE8:
 493              		.align	2
 494              		.globl	_Z8sem_openPP4_semj
GAS LISTING /tmp/ccq61UL6.s 			page 11


 496              	_Z8sem_openPP4_semj:
 497              	.LFB9:
  72:src/syscall_c.cpp **** 
  73:src/syscall_c.cpp **** int sem_open (sem_t* handle, unsigned init) {
 498              		.loc 1 73 45 is_stmt 1
 499              		.cfi_startproc
 500              	.LVL53:
  74:src/syscall_c.cpp ****     if (!handle) return -1;
 501              		.loc 1 74 5
 502 025c 63000504 		beqz	a0,.L54
  73:src/syscall_c.cpp ****     if (!handle) return -1;
 503              		.loc 1 73 45 is_stmt 0
 504 0260 130101FF 		addi	sp,sp,-16
 505              		.cfi_def_cfa_offset 16
 506 0264 23341100 		sd	ra,8(sp)
 507 0268 23308100 		sd	s0,0(sp)
 508              		.cfi_offset 1, -8
 509              		.cfi_offset 8, -16
 510 026c 13040101 		addi	s0,sp,16
 511              		.cfi_def_cfa 8, 0
 512 0270 13860500 		mv	a2,a1
  75:src/syscall_c.cpp ****     abiInvoker(SEM_OPEN, handle, init);
 513              		.loc 1 75 5 is_stmt 1
 514              		.loc 1 75 15 is_stmt 0
 515 0274 93050500 		mv	a1,a0
 516              	.LVL54:
 517 0278 13051002 		li	a0,33
 518              	.LVL55:
 519 027c 97000000 		call	_Z10abiInvokeriz
 519      E7800000 
 520              	.LVL56:
  76:src/syscall_c.cpp ****     uint64 ret;
 521              		.loc 1 76 5 is_stmt 1
  77:src/syscall_c.cpp ****     __asm__ volatile ("mv %0, a0" : "=r" (ret));
 522              		.loc 1 77 5
 523              		.loc 1 77 48 is_stmt 0
 524              	#APP
 525              	# 77 "src/syscall_c.cpp" 1
  78              	    return (int) ret;
 526              		mv a0, a0
 527              	# 0 "" 2
 528              	.LVL57:
 529              		.loc 1 78 5 is_stmt 1
 530              		.loc 1 78 18 is_stmt 0
 531              	#NO_APP
 532 0288 1B050500 		sext.w	a0,a0
 533              	.LVL58:
  79:src/syscall_c.cpp **** }
 534              		.loc 1 79 1
 535 028c 83308100 		ld	ra,8(sp)
 536              		.cfi_restore 1
 537 0290 03340100 		ld	s0,0(sp)
 538              		.cfi_restore 8
 539              		.cfi_def_cfa 2, 16
 540 0294 13010101 		addi	sp,sp,16
 541              		.cfi_def_cfa_offset 0
 542 0298 67800000 		jr	ra
GAS LISTING /tmp/ccq61UL6.s 			page 12


 543              	.LVL59:
 544              	.L54:
  74:src/syscall_c.cpp ****     abiInvoker(SEM_OPEN, handle, init);
 545              		.loc 1 74 26
 546 029c 1305F0FF 		li	a0,-1
 547              	.LVL60:
 548              		.loc 1 79 1
 549 02a0 67800000 		ret
 550              		.cfi_endproc
 551              	.LFE9:
 553              		.align	2
 554              		.globl	_Z9sem_closeP4_sem
 556              	_Z9sem_closeP4_sem:
 557              	.LFB10:
  80:src/syscall_c.cpp **** 
  81:src/syscall_c.cpp **** int sem_close (sem_t handle) {
 558              		.loc 1 81 30 is_stmt 1
 559              		.cfi_startproc
 560              	.LVL61:
  82:src/syscall_c.cpp ****     if (!handle) return -1;
 561              		.loc 1 82 5
 562 02a4 630E0502 		beqz	a0,.L61
  81:src/syscall_c.cpp ****     if (!handle) return -1;
 563              		.loc 1 81 30 is_stmt 0
 564 02a8 130101FF 		addi	sp,sp,-16
 565              		.cfi_def_cfa_offset 16
 566 02ac 23341100 		sd	ra,8(sp)
 567 02b0 23308100 		sd	s0,0(sp)
 568              		.cfi_offset 1, -8
 569              		.cfi_offset 8, -16
 570 02b4 13040101 		addi	s0,sp,16
 571              		.cfi_def_cfa 8, 0
 572 02b8 93050500 		mv	a1,a0
  83:src/syscall_c.cpp ****     abiInvoker(SEM_CLOSE, handle);
 573              		.loc 1 83 5 is_stmt 1
 574              		.loc 1 83 15 is_stmt 0
 575 02bc 13052002 		li	a0,34
 576              	.LVL62:
 577 02c0 97000000 		call	_Z10abiInvokeriz
 577      E7800000 
 578              	.LVL63:
  84:src/syscall_c.cpp ****     uint64 ret;
 579              		.loc 1 84 5 is_stmt 1
  85:src/syscall_c.cpp ****     __asm__ volatile ("mv %0, a0" : "=r" (ret));
 580              		.loc 1 85 5
 581              		.loc 1 85 48 is_stmt 0
 582              	#APP
 583              	# 85 "src/syscall_c.cpp" 1
  86              	    return (int) ret;
 584              		mv a0, a0
 585              	# 0 "" 2
 586              	.LVL64:
 587              		.loc 1 86 5 is_stmt 1
 588              		.loc 1 86 18 is_stmt 0
 589              	#NO_APP
 590 02cc 1B050500 		sext.w	a0,a0
 591              	.LVL65:
GAS LISTING /tmp/ccq61UL6.s 			page 13


  87:src/syscall_c.cpp **** }
 592              		.loc 1 87 1
 593 02d0 83308100 		ld	ra,8(sp)
 594              		.cfi_restore 1
 595 02d4 03340100 		ld	s0,0(sp)
 596              		.cfi_restore 8
 597              		.cfi_def_cfa 2, 16
 598 02d8 13010101 		addi	sp,sp,16
 599              		.cfi_def_cfa_offset 0
 600 02dc 67800000 		jr	ra
 601              	.LVL66:
 602              	.L61:
  82:src/syscall_c.cpp ****     abiInvoker(SEM_CLOSE, handle);
 603              		.loc 1 82 26
 604 02e0 1305F0FF 		li	a0,-1
 605              	.LVL67:
 606              		.loc 1 87 1
 607 02e4 67800000 		ret
 608              		.cfi_endproc
 609              	.LFE10:
 611              		.align	2
 612              		.globl	_Z8sem_waitP4_sem
 614              	_Z8sem_waitP4_sem:
 615              	.LFB11:
  88:src/syscall_c.cpp **** 
  89:src/syscall_c.cpp **** int sem_wait (sem_t id) {
 616              		.loc 1 89 25 is_stmt 1
 617              		.cfi_startproc
 618              	.LVL68:
  90:src/syscall_c.cpp ****     if (!id) return -1;
 619              		.loc 1 90 5
 620 02e8 630E0502 		beqz	a0,.L68
  89:src/syscall_c.cpp ****     if (!id) return -1;
 621              		.loc 1 89 25 is_stmt 0
 622 02ec 130101FF 		addi	sp,sp,-16
 623              		.cfi_def_cfa_offset 16
 624 02f0 23341100 		sd	ra,8(sp)
 625 02f4 23308100 		sd	s0,0(sp)
 626              		.cfi_offset 1, -8
 627              		.cfi_offset 8, -16
 628 02f8 13040101 		addi	s0,sp,16
 629              		.cfi_def_cfa 8, 0
 630 02fc 93050500 		mv	a1,a0
  91:src/syscall_c.cpp ****     abiInvoker(SEM_WAIT, id);
 631              		.loc 1 91 5 is_stmt 1
 632              		.loc 1 91 15 is_stmt 0
 633 0300 13053002 		li	a0,35
 634              	.LVL69:
 635 0304 97000000 		call	_Z10abiInvokeriz
 635      E7800000 
 636              	.LVL70:
  92:src/syscall_c.cpp ****     uint64 ret;
 637              		.loc 1 92 5 is_stmt 1
  93:src/syscall_c.cpp ****     __asm__ volatile ("mv %0, a0" : "=r" (ret));
 638              		.loc 1 93 5
 639              		.loc 1 93 48 is_stmt 0
 640              	#APP
GAS LISTING /tmp/ccq61UL6.s 			page 14


 641              	# 93 "src/syscall_c.cpp" 1
  94              	    return (int) ret;
 642              		mv a0, a0
 643              	# 0 "" 2
 644              	.LVL71:
 645              		.loc 1 94 5 is_stmt 1
 646              		.loc 1 94 18 is_stmt 0
 647              	#NO_APP
 648 0310 1B050500 		sext.w	a0,a0
 649              	.LVL72:
  95:src/syscall_c.cpp **** }
 650              		.loc 1 95 1
 651 0314 83308100 		ld	ra,8(sp)
 652              		.cfi_restore 1
 653 0318 03340100 		ld	s0,0(sp)
 654              		.cfi_restore 8
 655              		.cfi_def_cfa 2, 16
 656 031c 13010101 		addi	sp,sp,16
 657              		.cfi_def_cfa_offset 0
 658 0320 67800000 		jr	ra
 659              	.LVL73:
 660              	.L68:
  90:src/syscall_c.cpp ****     abiInvoker(SEM_WAIT, id);
 661              		.loc 1 90 22
 662 0324 1305F0FF 		li	a0,-1
 663              	.LVL74:
 664              		.loc 1 95 1
 665 0328 67800000 		ret
 666              		.cfi_endproc
 667              	.LFE11:
 669              		.align	2
 670              		.globl	_Z10sem_signalP4_sem
 672              	_Z10sem_signalP4_sem:
 673              	.LFB12:
  96:src/syscall_c.cpp **** 
  97:src/syscall_c.cpp **** int sem_signal (sem_t id) {
 674              		.loc 1 97 27 is_stmt 1
 675              		.cfi_startproc
 676              	.LVL75:
  98:src/syscall_c.cpp ****     if (!id) return -1;
 677              		.loc 1 98 5
 678 032c 630E0502 		beqz	a0,.L75
  97:src/syscall_c.cpp ****     if (!id) return -1;
 679              		.loc 1 97 27 is_stmt 0
 680 0330 130101FF 		addi	sp,sp,-16
 681              		.cfi_def_cfa_offset 16
 682 0334 23341100 		sd	ra,8(sp)
 683 0338 23308100 		sd	s0,0(sp)
 684              		.cfi_offset 1, -8
 685              		.cfi_offset 8, -16
 686 033c 13040101 		addi	s0,sp,16
 687              		.cfi_def_cfa 8, 0
 688 0340 93050500 		mv	a1,a0
  99:src/syscall_c.cpp ****     abiInvoker(SEM_SIGNAL, id);
 689              		.loc 1 99 5 is_stmt 1
 690              		.loc 1 99 15 is_stmt 0
 691 0344 13054002 		li	a0,36
GAS LISTING /tmp/ccq61UL6.s 			page 15


 692              	.LVL76:
 693 0348 97000000 		call	_Z10abiInvokeriz
 693      E7800000 
 694              	.LVL77:
 100:src/syscall_c.cpp ****     uint64 ret;
 695              		.loc 1 100 5 is_stmt 1
 101:src/syscall_c.cpp ****     __asm__ volatile ("mv %0, a0" : "=r" (ret));
 696              		.loc 1 101 5
 697              		.loc 1 101 48 is_stmt 0
 698              	#APP
 699              	# 101 "src/syscall_c.cpp" 1
 102              	    return (int) ret;
 700              		mv a0, a0
 701              	# 0 "" 2
 702              	.LVL78:
 703              		.loc 1 102 5 is_stmt 1
 704              		.loc 1 102 18 is_stmt 0
 705              	#NO_APP
 706 0354 1B050500 		sext.w	a0,a0
 707              	.LVL79:
 103:src/syscall_c.cpp **** }
 708              		.loc 1 103 1
 709 0358 83308100 		ld	ra,8(sp)
 710              		.cfi_restore 1
 711 035c 03340100 		ld	s0,0(sp)
 712              		.cfi_restore 8
 713              		.cfi_def_cfa 2, 16
 714 0360 13010101 		addi	sp,sp,16
 715              		.cfi_def_cfa_offset 0
 716 0364 67800000 		jr	ra
 717              	.LVL80:
 718              	.L75:
  98:src/syscall_c.cpp ****     abiInvoker(SEM_SIGNAL, id);
 719              		.loc 1 98 22
 720 0368 1305F0FF 		li	a0,-1
 721              	.LVL81:
 722              		.loc 1 103 1
 723 036c 67800000 		ret
 724              		.cfi_endproc
 725              	.LFE12:
 727              		.align	2
 728              		.globl	_Z4getcv
 730              	_Z4getcv:
 731              	.LFB13:
 104:src/syscall_c.cpp **** 
 105:src/syscall_c.cpp **** char getc () {
 732              		.loc 1 105 14 is_stmt 1
 733              		.cfi_startproc
 734 0370 130101FF 		addi	sp,sp,-16
 735              		.cfi_def_cfa_offset 16
 736 0374 23341100 		sd	ra,8(sp)
 737 0378 23308100 		sd	s0,0(sp)
 738              		.cfi_offset 1, -8
 739              		.cfi_offset 8, -16
 740 037c 13040101 		addi	s0,sp,16
 741              		.cfi_def_cfa 8, 0
 106:src/syscall_c.cpp ****     abiInvoker(GET_C);
GAS LISTING /tmp/ccq61UL6.s 			page 16


 742              		.loc 1 106 5
 743              		.loc 1 106 15 is_stmt 0
 744 0380 13051004 		li	a0,65
 745 0384 97000000 		call	_Z10abiInvokeriz
 745      E7800000 
 746              	.LVL82:
 107:src/syscall_c.cpp ****     uint64 ret;
 747              		.loc 1 107 5 is_stmt 1
 108:src/syscall_c.cpp ****     __asm__ volatile ("mv %0, a0" : "=r" (ret));
 748              		.loc 1 108 5
 749              		.loc 1 108 48 is_stmt 0
 750              	#APP
 751              	# 108 "src/syscall_c.cpp" 1
 109              	    return (char) ret;
 752              		mv a0, a0
 753              	# 0 "" 2
 754              	.LVL83:
 755              		.loc 1 109 5 is_stmt 1
 110:src/syscall_c.cpp **** }
 756              		.loc 1 110 1 is_stmt 0
 757              	#NO_APP
 758 0390 1375F50F 		andi	a0,a0,0xff
 759              	.LVL84:
 760 0394 83308100 		ld	ra,8(sp)
 761              		.cfi_restore 1
 762 0398 03340100 		ld	s0,0(sp)
 763              		.cfi_restore 8
 764              		.cfi_def_cfa 2, 16
 765 039c 13010101 		addi	sp,sp,16
 766              		.cfi_def_cfa_offset 0
 767 03a0 67800000 		jr	ra
 768              		.cfi_endproc
 769              	.LFE13:
 771              		.align	2
 772              		.globl	_Z4putcc
 774              	_Z4putcc:
 775              	.LFB14:
 111:src/syscall_c.cpp **** 
 112:src/syscall_c.cpp **** void putc (char c) {
 776              		.loc 1 112 20 is_stmt 1
 777              		.cfi_startproc
 778              	.LVL85:
 113:src/syscall_c.cpp ****     if (!c) return;
 779              		.loc 1 113 5
 780 03a4 63140500 		bnez	a0,.L88
 781 03a8 67800000 		ret
 782              	.L88:
 112:src/syscall_c.cpp ****     if (!c) return;
 783              		.loc 1 112 20 is_stmt 0
 784 03ac 130101FF 		addi	sp,sp,-16
 785              		.cfi_def_cfa_offset 16
 786 03b0 23341100 		sd	ra,8(sp)
 787 03b4 23308100 		sd	s0,0(sp)
 788              		.cfi_offset 1, -8
 789              		.cfi_offset 8, -16
 790 03b8 13040101 		addi	s0,sp,16
 791              		.cfi_def_cfa 8, 0
GAS LISTING /tmp/ccq61UL6.s 			page 17


 114:src/syscall_c.cpp ****     abiInvoker(PUT_C, c);
 792              		.loc 1 114 5 is_stmt 1
 793              		.loc 1 114 15 is_stmt 0
 794 03bc 93050500 		mv	a1,a0
 795 03c0 13052004 		li	a0,66
 796              	.LVL86:
 797 03c4 97000000 		call	_Z10abiInvokeriz
 797      E7800000 
 798              	.LVL87:
 115:src/syscall_c.cpp **** }...
 799              		.loc 1 115 1
 800 03cc 83308100 		ld	ra,8(sp)
 801              		.cfi_restore 1
 802 03d0 03340100 		ld	s0,0(sp)
 803              		.cfi_restore 8
 804              		.cfi_def_cfa 2, 16
 805 03d4 13010101 		addi	sp,sp,16
 806              		.cfi_def_cfa_offset 0
 807 03d8 67800000 		jr	ra
 808              		.cfi_endproc
 809              	.LFE14:
 811              	.Letext0:
 812              		.file 2 "src/../h/../lib/hw.h"
 813              		.file 3 "src/../h/syscall_c.hpp"
 814              		.file 4 "src/../h/ABICodes.hpp"
GAS LISTING /tmp/ccq61UL6.s 			page 18

