GAS LISTING /tmp/ccjhmmD6.s 			page 1


   1              		.file	"System_Mode_test.cpp"
   2              		.option pic
   3              		.option norelax
   4              		.text
   5              	.Ltext0:
   6              		.align	2
   8              	_ZL9fibonaccim:
   9              	.LFB0:
  10              		.file 1 "src/System_Mode_test.cpp"
   1:src/System_Mode_test.cpp **** 
   2:src/System_Mode_test.cpp **** #include "../h/syscall_c.hpp"
   3:src/System_Mode_test.cpp **** 
   4:src/System_Mode_test.cpp **** #include "../h/printing.hpp"
   5:src/System_Mode_test.cpp **** 
   6:src/System_Mode_test.cpp **** static volatile bool finishedA = false;
   7:src/System_Mode_test.cpp **** static volatile bool finishedB = false;
   8:src/System_Mode_test.cpp **** static volatile bool finishedC = false;
   9:src/System_Mode_test.cpp **** static volatile bool finishedD = false;
  10:src/System_Mode_test.cpp **** 
  11:src/System_Mode_test.cpp **** static uint64 fibonacci(uint64 n) {
  11              		.loc 1 11 35
  12              		.cfi_startproc
  13              	.LVL0:
  14 0000 130101FE 		addi	sp,sp,-32
  15              		.cfi_def_cfa_offset 32
  16 0004 233C1100 		sd	ra,24(sp)
  17 0008 23388100 		sd	s0,16(sp)
  18 000c 23349100 		sd	s1,8(sp)
  19 0010 23302101 		sd	s2,0(sp)
  20              		.cfi_offset 1, -8
  21              		.cfi_offset 8, -16
  22              		.cfi_offset 9, -24
  23              		.cfi_offset 18, -32
  24 0014 13040102 		addi	s0,sp,32
  25              		.cfi_def_cfa 8, 0
  26 0018 93040500 		mv	s1,a0
  12:src/System_Mode_test.cpp ****     if (n == 0 || n == 1) { return n; }
  27              		.loc 1 12 5
  28 001c 93071000 		li	a5,1
  29 0020 63F8A702 		bleu	a0,a5,.L1
  13:src/System_Mode_test.cpp ****     if (n % 10 == 0) { thread_dispatch(); }
  30              		.loc 1 13 5
  31              		.loc 1 13 11 is_stmt 0
  32 0024 9307A000 		li	a5,10
  33 0028 B377F502 		remu	a5,a0,a5
  34              		.loc 1 13 5
  35 002c 638E0702 		beqz	a5,.L6
  36              	.LVL1:
  37              	.L3:
  14:src/System_Mode_test.cpp ****     return fibonacci(n - 1) + fibonacci(n - 2);
  38              		.loc 1 14 5 is_stmt 1
  39              		.loc 1 14 21 is_stmt 0
  40 0030 1385F4FF 		addi	a0,s1,-1
  41 0034 97000000 		call	_ZL9fibonaccim
  41      E7800000 
  42              	.LVL2:
  43 003c 13090500 		mv	s2,a0
GAS LISTING /tmp/ccjhmmD6.s 			page 2


  44              		.loc 1 14 40
  45 0040 1385E4FF 		addi	a0,s1,-2
  46 0044 97000000 		call	_ZL9fibonaccim
  46      E7800000 
  47              	.LVL3:
  48              		.loc 1 14 46
  49 004c 3305A900 		add	a0,s2,a0
  50              	.L1:
  15:src/System_Mode_test.cpp **** }
  51              		.loc 1 15 1
  52 0050 83308101 		ld	ra,24(sp)
  53              		.cfi_remember_state
  54              		.cfi_restore 1
  55 0054 03340101 		ld	s0,16(sp)
  56              		.cfi_restore 8
  57              		.cfi_def_cfa 2, 32
  58 0058 83348100 		ld	s1,8(sp)
  59              		.cfi_restore 9
  60              	.LVL4:
  61 005c 03390100 		ld	s2,0(sp)
  62              		.cfi_restore 18
  63 0060 13010102 		addi	sp,sp,32
  64              		.cfi_def_cfa_offset 0
  65 0064 67800000 		jr	ra
  66              	.LVL5:
  67              	.L6:
  68              		.cfi_restore_state
  13:src/System_Mode_test.cpp ****     if (n % 10 == 0) { thread_dispatch(); }
  69              		.loc 1 13 24 is_stmt 1 discriminator 1
  13:src/System_Mode_test.cpp ****     if (n % 10 == 0) { thread_dispatch(); }
  70              		.loc 1 13 39 is_stmt 0 discriminator 1
  71 0068 97000000 		call	_Z15thread_dispatchv@plt
  71      E7800000 
  72              	.LVL6:
  73 0070 6FF01FFC 		j	.L3
  74              		.cfi_endproc
  75              	.LFE0:
  77              		.section	.rodata.str1.8,"aMS",@progbits,1
  78              		.align	3
  79              	.LC0:
  80 0000 443A2069 		.string	"D: i="
  80      3D00
  81 0006 0000     		.align	3
  82              	.LC1:
  83 0008 0A00     		.string	"\n"
  84 000a 00000000 		.align	3
  84      0000
  85              	.LC2:
  86 0010 443A2064 		.string	"D: dispatch\n"
  86      69737061 
  86      7463680A 
  86      00
  87 001d 000000   		.align	3
  88              	.LC3:
  89 0020 443A2066 		.string	"D: fibonaci="
  89      69626F6E 
  89      6163693D 
GAS LISTING /tmp/ccjhmmD6.s 			page 3


  89      00
  90 002d 000000   		.align	3
  91              	.LC4:
  92 0030 44206669 		.string	"D finished!\n"
  92      6E697368 
  92      6564210A 
  92      00
  93              		.text
  94              		.align	2
  96              	_ZL11workerBodyDPv:
  97              	.LFB4:
  16:src/System_Mode_test.cpp **** 
  17:src/System_Mode_test.cpp **** static void workerBodyA(void* arg) {
  18:src/System_Mode_test.cpp ****     for (uint64 i = 0; i < 10; i++) {
  19:src/System_Mode_test.cpp ****         printString("A: i="); printInt(i); printString("\n");
  20:src/System_Mode_test.cpp ****         for (uint64 j = 0; j < 10; j++) {
  21:src/System_Mode_test.cpp ****             for (uint64 k = 0; k < 30000; k++) { /* busy wait */ }
  22:src/System_Mode_test.cpp ****             thread_dispatch();
  23:src/System_Mode_test.cpp ****         }
  24:src/System_Mode_test.cpp ****     }
  25:src/System_Mode_test.cpp ****     printString("A finished!\n");
  26:src/System_Mode_test.cpp ****     finishedA = true;
  27:src/System_Mode_test.cpp **** }
  28:src/System_Mode_test.cpp **** 
  29:src/System_Mode_test.cpp **** static void workerBodyB(void* arg) {
  30:src/System_Mode_test.cpp ****     for (uint64 i = 0; i < 16; i++) {
  31:src/System_Mode_test.cpp ****         printString("B: i="); printInt(i); printString("\n");
  32:src/System_Mode_test.cpp ****         for (uint64 j = 0; j < 10; j++) {
  33:src/System_Mode_test.cpp ****             for (uint64 k = 0; k < 30000; k++) { /* busy wait */ }
  34:src/System_Mode_test.cpp ****             thread_dispatch();
  35:src/System_Mode_test.cpp ****         }
  36:src/System_Mode_test.cpp ****         if (i == 10) {
  37:src/System_Mode_test.cpp ****             asm volatile("csrr t6, sepc");
  38:src/System_Mode_test.cpp ****         }
  39:src/System_Mode_test.cpp ****     }
  40:src/System_Mode_test.cpp ****     printString("B finished!\n");
  41:src/System_Mode_test.cpp ****     finishedB = true;
  42:src/System_Mode_test.cpp ****     thread_dispatch();
  43:src/System_Mode_test.cpp **** }
  44:src/System_Mode_test.cpp **** 
  45:src/System_Mode_test.cpp **** static void workerBodyC(void* arg) {
  46:src/System_Mode_test.cpp ****     uint8 i = 0;
  47:src/System_Mode_test.cpp ****     for (; i < 3; i++) {
  48:src/System_Mode_test.cpp ****         printString("C: i="); printInt(i); printString("\n");
  49:src/System_Mode_test.cpp ****     }
  50:src/System_Mode_test.cpp **** 
  51:src/System_Mode_test.cpp ****     printString("C: dispatch\n");
  52:src/System_Mode_test.cpp ****     __asm__ ("li t1, 7");
  53:src/System_Mode_test.cpp ****     thread_dispatch();
  54:src/System_Mode_test.cpp **** 
  55:src/System_Mode_test.cpp ****     uint64 t1 = 0;
  56:src/System_Mode_test.cpp ****     __asm__ ("mv %[t1], t1" : [t1] "=r"(t1));
  57:src/System_Mode_test.cpp **** 
  58:src/System_Mode_test.cpp ****     printString("C: t1="); printInt(t1); printString("\n");
  59:src/System_Mode_test.cpp **** 
  60:src/System_Mode_test.cpp ****     uint64 result = fibonacci(12);
  61:src/System_Mode_test.cpp ****     printString("C: fibonaci="); printInt(result); printString("\n");
GAS LISTING /tmp/ccjhmmD6.s 			page 4


  62:src/System_Mode_test.cpp **** 
  63:src/System_Mode_test.cpp ****     for (; i < 6; i++) {
  64:src/System_Mode_test.cpp ****         printString("C: i="); printInt(i); printString("\n");
  65:src/System_Mode_test.cpp ****     }
  66:src/System_Mode_test.cpp **** 
  67:src/System_Mode_test.cpp ****     printString("A finished!\n");
  68:src/System_Mode_test.cpp ****     finishedC = true;
  69:src/System_Mode_test.cpp ****     thread_dispatch();
  70:src/System_Mode_test.cpp **** }
  71:src/System_Mode_test.cpp **** 
  72:src/System_Mode_test.cpp **** static void workerBodyD(void* arg) {
  98              		.loc 1 72 36 is_stmt 1
  99              		.cfi_startproc
 100              	.LVL7:
 101 0074 130101FE 		addi	sp,sp,-32
 102              		.cfi_def_cfa_offset 32
 103 0078 233C1100 		sd	ra,24(sp)
 104 007c 23388100 		sd	s0,16(sp)
 105 0080 23349100 		sd	s1,8(sp)
 106 0084 23302101 		sd	s2,0(sp)
 107              		.cfi_offset 1, -8
 108              		.cfi_offset 8, -16
 109              		.cfi_offset 9, -24
 110              		.cfi_offset 18, -32
 111 0088 13040102 		addi	s0,sp,32
 112              		.cfi_def_cfa 8, 0
  73:src/System_Mode_test.cpp ****     uint8 i = 10;
 113              		.loc 1 73 5
 114              	.LVL8:
 115              		.loc 1 73 11 is_stmt 0
 116 008c 9304A000 		li	s1,10
 117 0090 6F000004 		j	.L9
 118              	.LVL9:
 119              	.L13:
  74:src/System_Mode_test.cpp ****     for (; i < 13; i++) {
  75:src/System_Mode_test.cpp ****         printString("D: i="); printInt(i); printString("\n");
 120              		.loc 1 75 9 is_stmt 1 discriminator 1
 121              		.loc 1 75 20 is_stmt 0 discriminator 1
 122 0094 17050000 		lla	a0,.LC0
 122      13050500 
 123 009c 97000000 		call	_Z11printStringPKc@plt
 123      E7800000 
 124              	.LVL10:
 125              		.loc 1 75 31 is_stmt 1 discriminator 1
 126              		.loc 1 75 39 is_stmt 0 discriminator 1
 127 00a4 13060000 		li	a2,0
 128 00a8 9305A000 		li	a1,10
 129 00ac 13850400 		mv	a0,s1
 130 00b0 97000000 		call	_Z8printIntiii@plt
 130      E7800000 
 131              	.LVL11:
 132              		.loc 1 75 44 is_stmt 1 discriminator 1
 133              		.loc 1 75 55 is_stmt 0 discriminator 1
 134 00b8 17050000 		lla	a0,.LC1
 134      13050500 
 135 00c0 97000000 		call	_Z11printStringPKc@plt
 135      E7800000 
GAS LISTING /tmp/ccjhmmD6.s 			page 5


 136              	.LVL12:
  74:src/System_Mode_test.cpp ****     for (; i < 13; i++) {
 137              		.loc 1 74 5 is_stmt 1 discriminator 1
 138 00c8 9B841400 		addiw	s1,s1,1
 139              	.LVL13:
 140 00cc 93F4F40F 		andi	s1,s1,0xff
 141              	.LVL14:
 142              	.L9:
  74:src/System_Mode_test.cpp ****     for (; i < 13; i++) {
 143              		.loc 1 74 5 discriminator 2
  74:src/System_Mode_test.cpp ****     for (; i < 13; i++) {
 144              		.loc 1 74 14 discriminator 2
 145 00d0 9307C000 		li	a5,12
 146 00d4 E3F097FC 		bleu	s1,a5,.L13
  76:src/System_Mode_test.cpp ****     }
  77:src/System_Mode_test.cpp **** 
  78:src/System_Mode_test.cpp ****     printString("D: dispatch\n");
 147              		.loc 1 78 5
 148              		.loc 1 78 16 is_stmt 0
 149 00d8 17050000 		lla	a0,.LC2
 149      13050500 
 150 00e0 97000000 		call	_Z11printStringPKc@plt
 150      E7800000 
 151              	.LVL15:
  79:src/System_Mode_test.cpp ****     __asm__ ("li t1, 5");
 152              		.loc 1 79 5 is_stmt 1
 153              		.loc 1 79 25 is_stmt 0
 154              	#APP
 155              	# 79 "src/System_Mode_test.cpp" 1
  80              	    thread_dispatch();
 156              		li t1, 5
 157              	# 0 "" 2
 158              		.loc 1 80 5 is_stmt 1
 159              		.loc 1 80 20 is_stmt 0
 160              	#NO_APP
 161 00ec 97000000 		call	_Z15thread_dispatchv@plt
 161      E7800000 
 162              	.LVL16:
  81:src/System_Mode_test.cpp **** 
  82:src/System_Mode_test.cpp ****     uint64 result = fibonacci(16);
 163              		.loc 1 82 5 is_stmt 1
 164              		.loc 1 82 30 is_stmt 0
 165 00f4 13050001 		li	a0,16
 166 00f8 97000000 		call	_ZL9fibonaccim
 166      E7800000 
 167              	.LVL17:
 168 0100 13090500 		mv	s2,a0
 169              	.LVL18:
  83:src/System_Mode_test.cpp ****     printString("D: fibonaci="); printInt(result); printString("\n");
 170              		.loc 1 83 5 is_stmt 1
 171              		.loc 1 83 16 is_stmt 0
 172 0104 17050000 		lla	a0,.LC3
 172      13050500 
 173              	.LVL19:
 174 010c 97000000 		call	_Z11printStringPKc@plt
 174      E7800000 
 175              	.LVL20:
GAS LISTING /tmp/ccjhmmD6.s 			page 6


 176              		.loc 1 83 34 is_stmt 1
 177              		.loc 1 83 42 is_stmt 0
 178 0114 13060000 		li	a2,0
 179 0118 9305A000 		li	a1,10
 180 011c 1B050900 		sext.w	a0,s2
 181 0120 97000000 		call	_Z8printIntiii@plt
 181      E7800000 
 182              	.LVL21:
 183              		.loc 1 83 52 is_stmt 1
 184              		.loc 1 83 63 is_stmt 0
 185 0128 17050000 		lla	a0,.LC1
 185      13050500 
 186 0130 97000000 		call	_Z11printStringPKc@plt
 186      E7800000 
 187              	.LVL22:
 188 0138 6F000004 		j	.L11
 189              	.L14:
  84:src/System_Mode_test.cpp **** 
  85:src/System_Mode_test.cpp ****     for (; i < 16; i++) {
  86:src/System_Mode_test.cpp ****         printString("D: i="); printInt(i); printString("\n");
 190              		.loc 1 86 9 is_stmt 1 discriminator 1
 191              		.loc 1 86 20 is_stmt 0 discriminator 1
 192 013c 17050000 		lla	a0,.LC0
 192      13050500 
 193 0144 97000000 		call	_Z11printStringPKc@plt
 193      E7800000 
 194              	.LVL23:
 195              		.loc 1 86 31 is_stmt 1 discriminator 1
 196              		.loc 1 86 39 is_stmt 0 discriminator 1
 197 014c 13060000 		li	a2,0
 198 0150 9305A000 		li	a1,10
 199 0154 13850400 		mv	a0,s1
 200 0158 97000000 		call	_Z8printIntiii@plt
 200      E7800000 
 201              	.LVL24:
 202              		.loc 1 86 44 is_stmt 1 discriminator 1
 203              		.loc 1 86 55 is_stmt 0 discriminator 1
 204 0160 17050000 		lla	a0,.LC1
 204      13050500 
 205 0168 97000000 		call	_Z11printStringPKc@plt
 205      E7800000 
 206              	.LVL25:
  85:src/System_Mode_test.cpp ****         printString("D: i="); printInt(i); printString("\n");
 207              		.loc 1 85 5 is_stmt 1 discriminator 1
 208 0170 9B841400 		addiw	s1,s1,1
 209              	.LVL26:
 210 0174 93F4F40F 		andi	s1,s1,0xff
 211              	.LVL27:
 212              	.L11:
  85:src/System_Mode_test.cpp ****         printString("D: i="); printInt(i); printString("\n");
 213              		.loc 1 85 5 discriminator 2
  85:src/System_Mode_test.cpp ****         printString("D: i="); printInt(i); printString("\n");
 214              		.loc 1 85 14 discriminator 2
 215 0178 9307F000 		li	a5,15
 216 017c E3F097FC 		bleu	s1,a5,.L14
  87:src/System_Mode_test.cpp ****     }
  88:src/System_Mode_test.cpp **** 
GAS LISTING /tmp/ccjhmmD6.s 			page 7


  89:src/System_Mode_test.cpp ****     printString("D finished!\n");
 217              		.loc 1 89 5
 218              		.loc 1 89 16 is_stmt 0
 219 0180 17050000 		lla	a0,.LC4
 219      13050500 
 220 0188 97000000 		call	_Z11printStringPKc@plt
 220      E7800000 
 221              	.LVL28:
  90:src/System_Mode_test.cpp ****     finishedD = true;
 222              		.loc 1 90 5 is_stmt 1
 223              		.loc 1 90 15 is_stmt 0
 224 0190 93071000 		li	a5,1
 225 0194 17070000 		sb	a5,.LANCHOR0,a4
 225      2300F700 
  91:src/System_Mode_test.cpp ****     thread_dispatch();
 226              		.loc 1 91 5 is_stmt 1
 227              		.loc 1 91 20 is_stmt 0
 228 019c 97000000 		call	_Z15thread_dispatchv@plt
 228      E7800000 
 229              	.LVL29:
  92:src/System_Mode_test.cpp **** }
 230              		.loc 1 92 1
 231 01a4 83308101 		ld	ra,24(sp)
 232              		.cfi_restore 1
 233 01a8 03340101 		ld	s0,16(sp)
 234              		.cfi_restore 8
 235              		.cfi_def_cfa 2, 32
 236 01ac 83348100 		ld	s1,8(sp)
 237              		.cfi_restore 9
 238              	.LVL30:
 239 01b0 03390100 		ld	s2,0(sp)
 240              		.cfi_restore 18
 241              	.LVL31:
 242 01b4 13010102 		addi	sp,sp,32
 243              		.cfi_def_cfa_offset 0
 244 01b8 67800000 		jr	ra
 245              		.cfi_endproc
 246              	.LFE4:
 248              		.section	.rodata.str1.8
 249 003d 000000   		.align	3
 250              	.LC5:
 251 0040 433A2069 		.string	"C: i="
 251      3D00
 252 0046 0000     		.align	3
 253              	.LC6:
 254 0048 433A2064 		.string	"C: dispatch\n"
 254      69737061 
 254      7463680A 
 254      00
 255 0055 000000   		.align	3
 256              	.LC7:
 257 0058 433A2074 		.string	"C: t1="
 257      313D00
 258 005f 00       		.align	3
 259              	.LC8:
 260 0060 433A2066 		.string	"C: fibonaci="
 260      69626F6E 
GAS LISTING /tmp/ccjhmmD6.s 			page 8


 260      6163693D 
 260      00
 261 006d 000000   		.align	3
 262              	.LC9:
 263 0070 41206669 		.string	"A finished!\n"
 263      6E697368 
 263      6564210A 
 263      00
 264              		.text
 265              		.align	2
 267              	_ZL11workerBodyCPv:
 268              	.LFB3:
  45:src/System_Mode_test.cpp ****     uint8 i = 0;
 269              		.loc 1 45 36 is_stmt 1
 270              		.cfi_startproc
 271              	.LVL32:
 272 01bc 130101FE 		addi	sp,sp,-32
 273              		.cfi_def_cfa_offset 32
 274 01c0 233C1100 		sd	ra,24(sp)
 275 01c4 23388100 		sd	s0,16(sp)
 276 01c8 23349100 		sd	s1,8(sp)
 277 01cc 23302101 		sd	s2,0(sp)
 278              		.cfi_offset 1, -8
 279              		.cfi_offset 8, -16
 280              		.cfi_offset 9, -24
 281              		.cfi_offset 18, -32
 282 01d0 13040102 		addi	s0,sp,32
 283              		.cfi_def_cfa 8, 0
  46:src/System_Mode_test.cpp ****     for (; i < 3; i++) {
 284              		.loc 1 46 5
 285              	.LVL33:
  46:src/System_Mode_test.cpp ****     for (; i < 3; i++) {
 286              		.loc 1 46 11 is_stmt 0
 287 01d4 93040000 		li	s1,0
 288 01d8 6F000004 		j	.L17
 289              	.LVL34:
 290              	.L21:
  48:src/System_Mode_test.cpp ****     }
 291              		.loc 1 48 9 is_stmt 1 discriminator 1
  48:src/System_Mode_test.cpp ****     }
 292              		.loc 1 48 20 is_stmt 0 discriminator 1
 293 01dc 17050000 		lla	a0,.LC5
 293      13050500 
 294 01e4 97000000 		call	_Z11printStringPKc@plt
 294      E7800000 
 295              	.LVL35:
  48:src/System_Mode_test.cpp ****     }
 296              		.loc 1 48 31 is_stmt 1 discriminator 1
  48:src/System_Mode_test.cpp ****     }
 297              		.loc 1 48 39 is_stmt 0 discriminator 1
 298 01ec 13060000 		li	a2,0
 299 01f0 9305A000 		li	a1,10
 300 01f4 13850400 		mv	a0,s1
 301 01f8 97000000 		call	_Z8printIntiii@plt
 301      E7800000 
 302              	.LVL36:
  48:src/System_Mode_test.cpp ****     }
GAS LISTING /tmp/ccjhmmD6.s 			page 9


 303              		.loc 1 48 44 is_stmt 1 discriminator 1
  48:src/System_Mode_test.cpp ****     }
 304              		.loc 1 48 55 is_stmt 0 discriminator 1
 305 0200 17050000 		lla	a0,.LC1
 305      13050500 
 306 0208 97000000 		call	_Z11printStringPKc@plt
 306      E7800000 
 307              	.LVL37:
  47:src/System_Mode_test.cpp ****         printString("C: i="); printInt(i); printString("\n");
 308              		.loc 1 47 5 is_stmt 1 discriminator 1
 309 0210 9B841400 		addiw	s1,s1,1
 310              	.LVL38:
 311 0214 93F4F40F 		andi	s1,s1,0xff
 312              	.LVL39:
 313              	.L17:
  47:src/System_Mode_test.cpp ****         printString("C: i="); printInt(i); printString("\n");
 314              		.loc 1 47 5 discriminator 2
  47:src/System_Mode_test.cpp ****         printString("C: i="); printInt(i); printString("\n");
 315              		.loc 1 47 14 discriminator 2
 316 0218 93072000 		li	a5,2
 317 021c E3F097FC 		bleu	s1,a5,.L21
  51:src/System_Mode_test.cpp ****     __asm__ ("li t1, 7");
 318              		.loc 1 51 5
  51:src/System_Mode_test.cpp ****     __asm__ ("li t1, 7");
 319              		.loc 1 51 16 is_stmt 0
 320 0220 17050000 		lla	a0,.LC6
 320      13050500 
 321 0228 97000000 		call	_Z11printStringPKc@plt
 321      E7800000 
 322              	.LVL40:
  52:src/System_Mode_test.cpp ****     thread_dispatch();
 323              		.loc 1 52 5 is_stmt 1
  52:src/System_Mode_test.cpp ****     thread_dispatch();
 324              		.loc 1 52 25 is_stmt 0
 325              	#APP
 326              	# 52 "src/System_Mode_test.cpp" 1
  53:src/System_Mode_test.cpp **** 
 327              		li t1, 7
 328              	# 0 "" 2
 329              		.loc 1 53 5 is_stmt 1
  53:src/System_Mode_test.cpp **** 
 330              		.loc 1 53 20 is_stmt 0
 331              	#NO_APP
 332 0234 97000000 		call	_Z15thread_dispatchv@plt
 332      E7800000 
 333              	.LVL41:
  55:src/System_Mode_test.cpp ****     __asm__ ("mv %[t1], t1" : [t1] "=r"(t1));
 334              		.loc 1 55 5 is_stmt 1
  56:src/System_Mode_test.cpp **** 
 335              		.loc 1 56 5
  56:src/System_Mode_test.cpp **** 
 336              		.loc 1 56 45 is_stmt 0
 337              	#APP
 338              	# 56 "src/System_Mode_test.cpp" 1
 339              		mv s2, t1
 340              	# 0 "" 2
 341              	.LVL42:
GAS LISTING /tmp/ccjhmmD6.s 			page 10


  58:src/System_Mode_test.cpp **** 
 342              		.loc 1 58 5 is_stmt 1
  58:src/System_Mode_test.cpp **** 
 343              		.loc 1 58 16 is_stmt 0
 344              	#NO_APP
 345 0240 17050000 		lla	a0,.LC7
 345      13050500 
 346 0248 97000000 		call	_Z11printStringPKc@plt
 346      E7800000 
 347              	.LVL43:
  58:src/System_Mode_test.cpp **** 
 348              		.loc 1 58 28 is_stmt 1
  58:src/System_Mode_test.cpp **** 
 349              		.loc 1 58 36 is_stmt 0
 350 0250 13060000 		li	a2,0
 351 0254 9305A000 		li	a1,10
 352 0258 1B050900 		sext.w	a0,s2
 353 025c 97000000 		call	_Z8printIntiii@plt
 353      E7800000 
 354              	.LVL44:
  58:src/System_Mode_test.cpp **** 
 355              		.loc 1 58 42 is_stmt 1
  58:src/System_Mode_test.cpp **** 
 356              		.loc 1 58 53 is_stmt 0
 357 0264 17050000 		lla	a0,.LC1
 357      13050500 
 358 026c 97000000 		call	_Z11printStringPKc@plt
 358      E7800000 
 359              	.LVL45:
  60:src/System_Mode_test.cpp ****     printString("C: fibonaci="); printInt(result); printString("\n");
 360              		.loc 1 60 5 is_stmt 1
  60:src/System_Mode_test.cpp ****     printString("C: fibonaci="); printInt(result); printString("\n");
 361              		.loc 1 60 30 is_stmt 0
 362 0274 1305C000 		li	a0,12
 363 0278 97000000 		call	_ZL9fibonaccim
 363      E7800000 
 364              	.LVL46:
 365 0280 13090500 		mv	s2,a0
 366              	.LVL47:
  61:src/System_Mode_test.cpp **** 
 367              		.loc 1 61 5 is_stmt 1
  61:src/System_Mode_test.cpp **** 
 368              		.loc 1 61 16 is_stmt 0
 369 0284 17050000 		lla	a0,.LC8
 369      13050500 
 370              	.LVL48:
 371 028c 97000000 		call	_Z11printStringPKc@plt
 371      E7800000 
 372              	.LVL49:
  61:src/System_Mode_test.cpp **** 
 373              		.loc 1 61 34 is_stmt 1
  61:src/System_Mode_test.cpp **** 
 374              		.loc 1 61 42 is_stmt 0
 375 0294 13060000 		li	a2,0
 376 0298 9305A000 		li	a1,10
 377 029c 1B050900 		sext.w	a0,s2
 378 02a0 97000000 		call	_Z8printIntiii@plt
GAS LISTING /tmp/ccjhmmD6.s 			page 11


 378      E7800000 
 379              	.LVL50:
  61:src/System_Mode_test.cpp **** 
 380              		.loc 1 61 52 is_stmt 1
  61:src/System_Mode_test.cpp **** 
 381              		.loc 1 61 63 is_stmt 0
 382 02a8 17050000 		lla	a0,.LC1
 382      13050500 
 383 02b0 97000000 		call	_Z11printStringPKc@plt
 383      E7800000 
 384              	.LVL51:
 385 02b8 6F000004 		j	.L19
 386              	.L22:
  64:src/System_Mode_test.cpp ****     }
 387              		.loc 1 64 9 is_stmt 1 discriminator 1
  64:src/System_Mode_test.cpp ****     }
 388              		.loc 1 64 20 is_stmt 0 discriminator 1
 389 02bc 17050000 		lla	a0,.LC5
 389      13050500 
 390 02c4 97000000 		call	_Z11printStringPKc@plt
 390      E7800000 
 391              	.LVL52:
  64:src/System_Mode_test.cpp ****     }
 392              		.loc 1 64 31 is_stmt 1 discriminator 1
  64:src/System_Mode_test.cpp ****     }
 393              		.loc 1 64 39 is_stmt 0 discriminator 1
 394 02cc 13060000 		li	a2,0
 395 02d0 9305A000 		li	a1,10
 396 02d4 13850400 		mv	a0,s1
 397 02d8 97000000 		call	_Z8printIntiii@plt
 397      E7800000 
 398              	.LVL53:
  64:src/System_Mode_test.cpp ****     }
 399              		.loc 1 64 44 is_stmt 1 discriminator 1
  64:src/System_Mode_test.cpp ****     }
 400              		.loc 1 64 55 is_stmt 0 discriminator 1
 401 02e0 17050000 		lla	a0,.LC1
 401      13050500 
 402 02e8 97000000 		call	_Z11printStringPKc@plt
 402      E7800000 
 403              	.LVL54:
  63:src/System_Mode_test.cpp ****         printString("C: i="); printInt(i); printString("\n");
 404              		.loc 1 63 5 is_stmt 1 discriminator 1
 405 02f0 9B841400 		addiw	s1,s1,1
 406              	.LVL55:
 407 02f4 93F4F40F 		andi	s1,s1,0xff
 408              	.LVL56:
 409              	.L19:
  63:src/System_Mode_test.cpp ****         printString("C: i="); printInt(i); printString("\n");
 410              		.loc 1 63 5 discriminator 2
  63:src/System_Mode_test.cpp ****         printString("C: i="); printInt(i); printString("\n");
 411              		.loc 1 63 14 discriminator 2
 412 02f8 93075000 		li	a5,5
 413 02fc E3F097FC 		bleu	s1,a5,.L22
  67:src/System_Mode_test.cpp ****     finishedC = true;
 414              		.loc 1 67 5
  67:src/System_Mode_test.cpp ****     finishedC = true;
GAS LISTING /tmp/ccjhmmD6.s 			page 12


 415              		.loc 1 67 16 is_stmt 0
 416 0300 17050000 		lla	a0,.LC9
 416      13050500 
 417 0308 97000000 		call	_Z11printStringPKc@plt
 417      E7800000 
 418              	.LVL57:
  68:src/System_Mode_test.cpp ****     thread_dispatch();
 419              		.loc 1 68 5 is_stmt 1
  68:src/System_Mode_test.cpp ****     thread_dispatch();
 420              		.loc 1 68 15 is_stmt 0
 421 0310 93071000 		li	a5,1
 422 0314 17070000 		sb	a5,.LANCHOR0+1,a4
 422      2300F700 
  69:src/System_Mode_test.cpp **** }
 423              		.loc 1 69 5 is_stmt 1
  69:src/System_Mode_test.cpp **** }
 424              		.loc 1 69 20 is_stmt 0
 425 031c 97000000 		call	_Z15thread_dispatchv@plt
 425      E7800000 
 426              	.LVL58:
  70:src/System_Mode_test.cpp **** 
 427              		.loc 1 70 1
 428 0324 83308101 		ld	ra,24(sp)
 429              		.cfi_restore 1
 430 0328 03340101 		ld	s0,16(sp)
 431              		.cfi_restore 8
 432              		.cfi_def_cfa 2, 32
 433 032c 83348100 		ld	s1,8(sp)
 434              		.cfi_restore 9
 435              	.LVL59:
 436 0330 03390100 		ld	s2,0(sp)
 437              		.cfi_restore 18
 438              	.LVL60:
 439 0334 13010102 		addi	sp,sp,32
 440              		.cfi_def_cfa_offset 0
 441 0338 67800000 		jr	ra
 442              		.cfi_endproc
 443              	.LFE3:
 445              		.section	.rodata.str1.8
 446 007d 000000   		.align	3
 447              	.LC10:
 448 0080 423A2069 		.string	"B: i="
 448      3D00
 449 0086 0000     		.align	3
 450              	.LC11:
 451 0088 42206669 		.string	"B finished!\n"
 451      6E697368 
 451      6564210A 
 451      00
 452              		.text
 453              		.align	2
 455              	_ZL11workerBodyBPv:
 456              	.LFB2:
  29:src/System_Mode_test.cpp ****     for (uint64 i = 0; i < 16; i++) {
 457              		.loc 1 29 36 is_stmt 1
 458              		.cfi_startproc
 459              	.LVL61:
GAS LISTING /tmp/ccjhmmD6.s 			page 13


 460 033c 130101FE 		addi	sp,sp,-32
 461              		.cfi_def_cfa_offset 32
 462 0340 233C1100 		sd	ra,24(sp)
 463 0344 23388100 		sd	s0,16(sp)
 464 0348 23349100 		sd	s1,8(sp)
 465 034c 23302101 		sd	s2,0(sp)
 466              		.cfi_offset 1, -8
 467              		.cfi_offset 8, -16
 468              		.cfi_offset 9, -24
 469              		.cfi_offset 18, -32
 470 0350 13040102 		addi	s0,sp,32
 471              		.cfi_def_cfa 8, 0
  30:src/System_Mode_test.cpp ****         printString("B: i="); printInt(i); printString("\n");
 472              		.loc 1 30 5
 473              	.LVL62:
 474              	.LBB2:
  30:src/System_Mode_test.cpp ****         printString("B: i="); printInt(i); printString("\n");
 475              		.loc 1 30 17 is_stmt 0
 476 0354 13090000 		li	s2,0
 477 0358 6F00C003 		j	.L30
 478              	.LVL63:
 479              	.L26:
 480              	.LBB3:
 481              	.LBB4:
 482              	.LBB5:
  34:src/System_Mode_test.cpp ****         }
 483              		.loc 1 34 13 is_stmt 1 discriminator 2
  34:src/System_Mode_test.cpp ****         }
 484              		.loc 1 34 28 is_stmt 0 discriminator 2
 485 035c 97000000 		call	_Z15thread_dispatchv@plt
 485      E7800000 
 486              	.LVL64:
 487              	.LBE5:
  32:src/System_Mode_test.cpp ****             for (uint64 k = 0; k < 30000; k++) { /* busy wait */ }
 488              		.loc 1 32 9 is_stmt 1 discriminator 2
 489 0364 93841400 		addi	s1,s1,1
 490              	.LVL65:
 491              	.L28:
  32:src/System_Mode_test.cpp ****             for (uint64 k = 0; k < 30000; k++) { /* busy wait */ }
 492              		.loc 1 32 30 discriminator 1
 493 0368 93079000 		li	a5,9
 494 036c 63EE9700 		bgtu	s1,a5,.L25
 495              	.LBB7:
 496              	.LBB6:
  33:src/System_Mode_test.cpp ****             thread_dispatch();
 497              		.loc 1 33 25 is_stmt 0
 498 0370 13070000 		li	a4,0
 499              	.L27:
 500              	.LVL66:
  33:src/System_Mode_test.cpp ****             thread_dispatch();
 501              		.loc 1 33 34 is_stmt 1 discriminator 3
 502 0374 B7770000 		li	a5,28672
 503 0378 9387F752 		addi	a5,a5,1327
 504 037c E3E0E7FE 		bgtu	a4,a5,.L26
  33:src/System_Mode_test.cpp ****             thread_dispatch();
 505              		.loc 1 33 13 discriminator 2
 506 0380 13071700 		addi	a4,a4,1
GAS LISTING /tmp/ccjhmmD6.s 			page 14


 507              	.LVL67:
 508 0384 6FF01FFF 		j	.L27
 509              	.LVL68:
 510              	.L25:
 511              	.LBE6:
 512              	.LBE7:
 513              	.LBE4:
  36:src/System_Mode_test.cpp ****             asm volatile("csrr t6, sepc");
 514              		.loc 1 36 9
 515 0388 9307A000 		li	a5,10
 516 038c 6306F904 		beq	s2,a5,.L32
 517              	.L29:
 518              	.LBE3:
  30:src/System_Mode_test.cpp ****         printString("B: i="); printInt(i); printString("\n");
 519              		.loc 1 30 5 discriminator 2
 520 0390 13091900 		addi	s2,s2,1
 521              	.LVL69:
 522              	.L30:
  30:src/System_Mode_test.cpp ****         printString("B: i="); printInt(i); printString("\n");
 523              		.loc 1 30 26 discriminator 1
 524 0394 9307F000 		li	a5,15
 525 0398 63E42705 		bgtu	s2,a5,.L24
 526              	.LBB9:
  31:src/System_Mode_test.cpp ****         for (uint64 j = 0; j < 10; j++) {
 527              		.loc 1 31 9
  31:src/System_Mode_test.cpp ****         for (uint64 j = 0; j < 10; j++) {
 528              		.loc 1 31 20 is_stmt 0
 529 039c 17050000 		lla	a0,.LC10
 529      13050500 
 530 03a4 97000000 		call	_Z11printStringPKc@plt
 530      E7800000 
 531              	.LVL70:
  31:src/System_Mode_test.cpp ****         for (uint64 j = 0; j < 10; j++) {
 532              		.loc 1 31 31 is_stmt 1
  31:src/System_Mode_test.cpp ****         for (uint64 j = 0; j < 10; j++) {
 533              		.loc 1 31 39 is_stmt 0
 534 03ac 13060000 		li	a2,0
 535 03b0 9305A000 		li	a1,10
 536 03b4 1B050900 		sext.w	a0,s2
 537 03b8 97000000 		call	_Z8printIntiii@plt
 537      E7800000 
 538              	.LVL71:
  31:src/System_Mode_test.cpp ****         for (uint64 j = 0; j < 10; j++) {
 539              		.loc 1 31 44 is_stmt 1
  31:src/System_Mode_test.cpp ****         for (uint64 j = 0; j < 10; j++) {
 540              		.loc 1 31 55 is_stmt 0
 541 03c0 17050000 		lla	a0,.LC1
 541      13050500 
 542 03c8 97000000 		call	_Z11printStringPKc@plt
 542      E7800000 
 543              	.LVL72:
  32:src/System_Mode_test.cpp ****             for (uint64 k = 0; k < 30000; k++) { /* busy wait */ }
 544              		.loc 1 32 9 is_stmt 1
 545              	.LBB8:
  32:src/System_Mode_test.cpp ****             for (uint64 k = 0; k < 30000; k++) { /* busy wait */ }
 546              		.loc 1 32 21 is_stmt 0
 547 03d0 93040000 		li	s1,0
GAS LISTING /tmp/ccjhmmD6.s 			page 15


 548 03d4 6FF05FF9 		j	.L28
 549              	.LVL73:
 550              	.L32:
 551              	.LBE8:
  37:src/System_Mode_test.cpp ****         }
 552              		.loc 1 37 13 is_stmt 1
  37:src/System_Mode_test.cpp ****         }
 553              		.loc 1 37 42 is_stmt 0
 554              	#APP
 555              	# 37 "src/System_Mode_test.cpp" 1
 556              		csrr t6, sepc
 557              	# 0 "" 2
 558              	#NO_APP
 559 03dc 6FF05FFB 		j	.L29
 560              	.LVL74:
 561              	.L24:
 562              	.LBE9:
 563              	.LBE2:
  40:src/System_Mode_test.cpp ****     finishedB = true;
 564              		.loc 1 40 5 is_stmt 1
  40:src/System_Mode_test.cpp ****     finishedB = true;
 565              		.loc 1 40 16 is_stmt 0
 566 03e0 17050000 		lla	a0,.LC11
 566      13050500 
 567 03e8 97000000 		call	_Z11printStringPKc@plt
 567      E7800000 
 568              	.LVL75:
  41:src/System_Mode_test.cpp ****     thread_dispatch();
 569              		.loc 1 41 5 is_stmt 1
  41:src/System_Mode_test.cpp ****     thread_dispatch();
 570              		.loc 1 41 15 is_stmt 0
 571 03f0 93071000 		li	a5,1
 572 03f4 17070000 		sb	a5,.LANCHOR0+2,a4
 572      2300F700 
  42:src/System_Mode_test.cpp **** }
 573              		.loc 1 42 5 is_stmt 1
  42:src/System_Mode_test.cpp **** }
 574              		.loc 1 42 20 is_stmt 0
 575 03fc 97000000 		call	_Z15thread_dispatchv@plt
 575      E7800000 
 576              	.LVL76:
  43:src/System_Mode_test.cpp **** 
 577              		.loc 1 43 1
 578 0404 83308101 		ld	ra,24(sp)
 579              		.cfi_restore 1
 580 0408 03340101 		ld	s0,16(sp)
 581              		.cfi_restore 8
 582              		.cfi_def_cfa 2, 32
 583 040c 83348100 		ld	s1,8(sp)
 584              		.cfi_restore 9
 585 0410 03390100 		ld	s2,0(sp)
 586              		.cfi_restore 18
 587              	.LVL77:
 588 0414 13010102 		addi	sp,sp,32
 589              		.cfi_def_cfa_offset 0
 590 0418 67800000 		jr	ra
 591              		.cfi_endproc
GAS LISTING /tmp/ccjhmmD6.s 			page 16


 592              	.LFE2:
 594              		.section	.rodata.str1.8
 595 0095 000000   		.align	3
 596              	.LC12:
 597 0098 413A2069 		.string	"A: i="
 597      3D00
 598              		.text
 599              		.align	2
 601              	_ZL11workerBodyAPv:
 602              	.LFB1:
  17:src/System_Mode_test.cpp ****     for (uint64 i = 0; i < 10; i++) {
 603              		.loc 1 17 36 is_stmt 1
 604              		.cfi_startproc
 605              	.LVL78:
 606 041c 130101FE 		addi	sp,sp,-32
 607              		.cfi_def_cfa_offset 32
 608 0420 233C1100 		sd	ra,24(sp)
 609 0424 23388100 		sd	s0,16(sp)
 610 0428 23349100 		sd	s1,8(sp)
 611 042c 23302101 		sd	s2,0(sp)
 612              		.cfi_offset 1, -8
 613              		.cfi_offset 8, -16
 614              		.cfi_offset 9, -24
 615              		.cfi_offset 18, -32
 616 0430 13040102 		addi	s0,sp,32
 617              		.cfi_def_cfa 8, 0
  18:src/System_Mode_test.cpp ****         printString("A: i="); printInt(i); printString("\n");
 618              		.loc 1 18 5
 619              	.LVL79:
 620              	.LBB10:
  18:src/System_Mode_test.cpp ****         printString("A: i="); printInt(i); printString("\n");
 621              		.loc 1 18 17 is_stmt 0
 622 0434 13090000 		li	s2,0
 623 0438 6F004003 		j	.L39
 624              	.LVL80:
 625              	.L36:
 626              	.LBB11:
 627              	.LBB12:
 628              	.LBB13:
  22:src/System_Mode_test.cpp ****         }
 629              		.loc 1 22 13 is_stmt 1 discriminator 2
  22:src/System_Mode_test.cpp ****         }
 630              		.loc 1 22 28 is_stmt 0 discriminator 2
 631 043c 97000000 		call	_Z15thread_dispatchv@plt
 631      E7800000 
 632              	.LVL81:
 633              	.LBE13:
  20:src/System_Mode_test.cpp ****             for (uint64 k = 0; k < 30000; k++) { /* busy wait */ }
 634              		.loc 1 20 9 is_stmt 1 discriminator 2
 635 0444 93841400 		addi	s1,s1,1
 636              	.LVL82:
 637              	.L38:
  20:src/System_Mode_test.cpp ****             for (uint64 k = 0; k < 30000; k++) { /* busy wait */ }
 638              		.loc 1 20 30 discriminator 1
 639 0448 93079000 		li	a5,9
 640 044c 63EE9700 		bgtu	s1,a5,.L35
 641              	.LBB15:
GAS LISTING /tmp/ccjhmmD6.s 			page 17


 642              	.LBB14:
  21:src/System_Mode_test.cpp ****             thread_dispatch();
 643              		.loc 1 21 25 is_stmt 0
 644 0450 13070000 		li	a4,0
 645              	.L37:
 646              	.LVL83:
  21:src/System_Mode_test.cpp ****             thread_dispatch();
 647              		.loc 1 21 34 is_stmt 1 discriminator 3
 648 0454 B7770000 		li	a5,28672
 649 0458 9387F752 		addi	a5,a5,1327
 650 045c E3E0E7FE 		bgtu	a4,a5,.L36
  21:src/System_Mode_test.cpp ****             thread_dispatch();
 651              		.loc 1 21 13 discriminator 2
 652 0460 13071700 		addi	a4,a4,1
 653              	.LVL84:
 654 0464 6FF01FFF 		j	.L37
 655              	.LVL85:
 656              	.L35:
 657              	.LBE14:
 658              	.LBE15:
 659              	.LBE12:
 660              	.LBE11:
  18:src/System_Mode_test.cpp ****         printString("A: i="); printInt(i); printString("\n");
 661              		.loc 1 18 5 discriminator 2
 662 0468 13091900 		addi	s2,s2,1
 663              	.LVL86:
 664              	.L39:
  18:src/System_Mode_test.cpp ****         printString("A: i="); printInt(i); printString("\n");
 665              		.loc 1 18 26 discriminator 1
 666 046c 93079000 		li	a5,9
 667 0470 63E02705 		bgtu	s2,a5,.L34
 668              	.LBB17:
  19:src/System_Mode_test.cpp ****         for (uint64 j = 0; j < 10; j++) {
 669              		.loc 1 19 9
  19:src/System_Mode_test.cpp ****         for (uint64 j = 0; j < 10; j++) {
 670              		.loc 1 19 20 is_stmt 0
 671 0474 17050000 		lla	a0,.LC12
 671      13050500 
 672 047c 97000000 		call	_Z11printStringPKc@plt
 672      E7800000 
 673              	.LVL87:
  19:src/System_Mode_test.cpp ****         for (uint64 j = 0; j < 10; j++) {
 674              		.loc 1 19 31 is_stmt 1
  19:src/System_Mode_test.cpp ****         for (uint64 j = 0; j < 10; j++) {
 675              		.loc 1 19 39 is_stmt 0
 676 0484 13060000 		li	a2,0
 677 0488 9305A000 		li	a1,10
 678 048c 1B050900 		sext.w	a0,s2
 679 0490 97000000 		call	_Z8printIntiii@plt
 679      E7800000 
 680              	.LVL88:
  19:src/System_Mode_test.cpp ****         for (uint64 j = 0; j < 10; j++) {
 681              		.loc 1 19 44 is_stmt 1
  19:src/System_Mode_test.cpp ****         for (uint64 j = 0; j < 10; j++) {
 682              		.loc 1 19 55 is_stmt 0
 683 0498 17050000 		lla	a0,.LC1
 683      13050500 
GAS LISTING /tmp/ccjhmmD6.s 			page 18


 684 04a0 97000000 		call	_Z11printStringPKc@plt
 684      E7800000 
 685              	.LVL89:
  20:src/System_Mode_test.cpp ****             for (uint64 k = 0; k < 30000; k++) { /* busy wait */ }
 686              		.loc 1 20 9 is_stmt 1
 687              	.LBB16:
  20:src/System_Mode_test.cpp ****             for (uint64 k = 0; k < 30000; k++) { /* busy wait */ }
 688              		.loc 1 20 21 is_stmt 0
 689 04a8 93040000 		li	s1,0
 690 04ac 6FF0DFF9 		j	.L38
 691              	.LVL90:
 692              	.L34:
 693              	.LBE16:
 694              	.LBE17:
 695              	.LBE10:
  25:src/System_Mode_test.cpp ****     finishedA = true;
 696              		.loc 1 25 5 is_stmt 1
  25:src/System_Mode_test.cpp ****     finishedA = true;
 697              		.loc 1 25 16 is_stmt 0
 698 04b0 17050000 		lla	a0,.LC9
 698      13050500 
 699 04b8 97000000 		call	_Z11printStringPKc@plt
 699      E7800000 
 700              	.LVL91:
  26:src/System_Mode_test.cpp **** }
 701              		.loc 1 26 5 is_stmt 1
  26:src/System_Mode_test.cpp **** }
 702              		.loc 1 26 15 is_stmt 0
 703 04c0 93071000 		li	a5,1
 704 04c4 17070000 		sb	a5,.LANCHOR0+3,a4
 704      2300F700 
  27:src/System_Mode_test.cpp **** 
 705              		.loc 1 27 1
 706 04cc 83308101 		ld	ra,24(sp)
 707              		.cfi_restore 1
 708 04d0 03340101 		ld	s0,16(sp)
 709              		.cfi_restore 8
 710              		.cfi_def_cfa 2, 32
 711 04d4 83348100 		ld	s1,8(sp)
 712              		.cfi_restore 9
 713 04d8 03390100 		ld	s2,0(sp)
 714              		.cfi_restore 18
 715              	.LVL92:
 716 04dc 13010102 		addi	sp,sp,32
 717              		.cfi_def_cfa_offset 0
 718 04e0 67800000 		jr	ra
 719              		.cfi_endproc
 720              	.LFE1:
 722              		.section	.rodata.str1.8
 723 009e 0000     		.align	3
 724              	.LC13:
 725 00a0 54687265 		.string	"ThreadA created\n"
 725      61644120 
 725      63726561 
 725      7465640A 
 725      00
 726 00b1 00000000 		.align	3
GAS LISTING /tmp/ccjhmmD6.s 			page 19


 726      000000
 727              	.LC14:
 728 00b8 54687265 		.string	"ThreadB created\n"
 728      61644220 
 728      63726561 
 728      7465640A 
 728      00
 729 00c9 00000000 		.align	3
 729      000000
 730              	.LC15:
 731 00d0 54687265 		.string	"ThreadC created\n"
 731      61644320 
 731      63726561 
 731      7465640A 
 731      00
 732 00e1 00000000 		.align	3
 732      000000
 733              	.LC16:
 734 00e8 54687265 		.string	"ThreadD created\n"
 734      61644420 
 734      63726561 
 734      7465640A 
 734      00
 735              		.text
 736              		.align	2
 737              		.globl	_Z16System_Mode_testv
 739              	_Z16System_Mode_testv:
 740              	.LFB5:
  93:src/System_Mode_test.cpp **** 
  94:src/System_Mode_test.cpp **** 
  95:src/System_Mode_test.cpp **** void System_Mode_test() {
 741              		.loc 1 95 25 is_stmt 1
 742              		.cfi_startproc
 743 04e4 130101FD 		addi	sp,sp,-48
 744              		.cfi_def_cfa_offset 48
 745 04e8 23341102 		sd	ra,40(sp)
 746 04ec 23308102 		sd	s0,32(sp)
 747              		.cfi_offset 1, -8
 748              		.cfi_offset 8, -16
 749 04f0 13040103 		addi	s0,sp,48
 750              		.cfi_def_cfa 8, 0
  96:src/System_Mode_test.cpp ****     thread_t threads[4];
 751              		.loc 1 96 5
  97:src/System_Mode_test.cpp ****     thread_create(&threads[0], workerBodyA, nullptr);
 752              		.loc 1 97 5
 753              		.loc 1 97 18 is_stmt 0
 754 04f4 13060000 		li	a2,0
 755 04f8 97050000 		lla	a1,_ZL11workerBodyAPv
 755      93850500 
 756 0500 130504FD 		addi	a0,s0,-48
 757 0504 97000000 		call	_Z13thread_createPP7_threadPFvPvES2_@plt
 757      E7800000 
 758              	.LVL93:
  98:src/System_Mode_test.cpp ****     printString("ThreadA created\n");
 759              		.loc 1 98 5 is_stmt 1
 760              		.loc 1 98 16 is_stmt 0
 761 050c 17050000 		lla	a0,.LC13
GAS LISTING /tmp/ccjhmmD6.s 			page 20


 761      13050500 
 762 0514 97000000 		call	_Z11printStringPKc@plt
 762      E7800000 
 763              	.LVL94:
  99:src/System_Mode_test.cpp **** 
 100:src/System_Mode_test.cpp ****     thread_create(&threads[1], workerBodyB, nullptr);
 764              		.loc 1 100 5 is_stmt 1
 765              		.loc 1 100 18 is_stmt 0
 766 051c 13060000 		li	a2,0
 767 0520 97050000 		lla	a1,_ZL11workerBodyBPv
 767      93850500 
 768 0528 130584FD 		addi	a0,s0,-40
 769 052c 97000000 		call	_Z13thread_createPP7_threadPFvPvES2_@plt
 769      E7800000 
 770              	.LVL95:
 101:src/System_Mode_test.cpp ****     printString("ThreadB created\n");
 771              		.loc 1 101 5 is_stmt 1
 772              		.loc 1 101 16 is_stmt 0
 773 0534 17050000 		lla	a0,.LC14
 773      13050500 
 774 053c 97000000 		call	_Z11printStringPKc@plt
 774      E7800000 
 775              	.LVL96:
 102:src/System_Mode_test.cpp **** 
 103:src/System_Mode_test.cpp ****     thread_create(&threads[2], workerBodyC, nullptr);
 776              		.loc 1 103 5 is_stmt 1
 777              		.loc 1 103 18 is_stmt 0
 778 0544 13060000 		li	a2,0
 779 0548 97050000 		lla	a1,_ZL11workerBodyCPv
 779      93850500 
 780 0550 130504FE 		addi	a0,s0,-32
 781 0554 97000000 		call	_Z13thread_createPP7_threadPFvPvES2_@plt
 781      E7800000 
 782              	.LVL97:
 104:src/System_Mode_test.cpp ****     printString("ThreadC created\n");
 783              		.loc 1 104 5 is_stmt 1
 784              		.loc 1 104 16 is_stmt 0
 785 055c 17050000 		lla	a0,.LC15
 785      13050500 
 786 0564 97000000 		call	_Z11printStringPKc@plt
 786      E7800000 
 787              	.LVL98:
 105:src/System_Mode_test.cpp **** 
 106:src/System_Mode_test.cpp ****     thread_create(&threads[3], workerBodyD, nullptr);
 788              		.loc 1 106 5 is_stmt 1
 789              		.loc 1 106 18 is_stmt 0
 790 056c 13060000 		li	a2,0
 791 0570 97050000 		lla	a1,_ZL11workerBodyDPv
 791      93850500 
 792 0578 130584FE 		addi	a0,s0,-24
 793 057c 97000000 		call	_Z13thread_createPP7_threadPFvPvES2_@plt
 793      E7800000 
 794              	.LVL99:
 107:src/System_Mode_test.cpp ****     printString("ThreadD created\n");
 795              		.loc 1 107 5 is_stmt 1
 796              		.loc 1 107 16 is_stmt 0
 797 0584 17050000 		lla	a0,.LC16
GAS LISTING /tmp/ccjhmmD6.s 			page 21


 797      13050500 
 798 058c 97000000 		call	_Z11printStringPKc@plt
 798      E7800000 
 799              	.LVL100:
 800 0594 6F00C000 		j	.L43
 801              	.L42:
 108:src/System_Mode_test.cpp **** 
 109:src/System_Mode_test.cpp ****     while (!(finishedA && finishedB && finishedC && finishedD)) {
 110:src/System_Mode_test.cpp ****         thread_dispatch();
 802              		.loc 1 110 9 is_stmt 1
 803              		.loc 1 110 24 is_stmt 0
 804 0598 97000000 		call	_Z15thread_dispatchv@plt
 804      E7800000 
 805              	.LVL101:
 806              	.L43:
 109:src/System_Mode_test.cpp ****         thread_dispatch();
 807              		.loc 1 109 5 is_stmt 1
 109:src/System_Mode_test.cpp ****         thread_dispatch();
 808              		.loc 1 109 12
 109:src/System_Mode_test.cpp ****         thread_dispatch();
 809              		.loc 1 109 14 is_stmt 0
 810 05a0 97070000 		lbu	a5,.LANCHOR0+3
 810      83C70700 
 109:src/System_Mode_test.cpp ****         thread_dispatch();
 811              		.loc 1 109 12
 812 05a8 E38807FE 		beqz	a5,.L42
 109:src/System_Mode_test.cpp ****         thread_dispatch();
 813              		.loc 1 109 27 discriminator 2
 814 05ac 97070000 		lbu	a5,.LANCHOR0+2
 814      83C70700 
 109:src/System_Mode_test.cpp ****         thread_dispatch();
 815              		.loc 1 109 24 discriminator 2
 816 05b4 E38207FE 		beqz	a5,.L42
 109:src/System_Mode_test.cpp ****         thread_dispatch();
 817              		.loc 1 109 40 discriminator 4
 818 05b8 97070000 		lbu	a5,.LANCHOR0+1
 818      83C70700 
 109:src/System_Mode_test.cpp ****         thread_dispatch();
 819              		.loc 1 109 37 discriminator 4
 820 05c0 E38C07FC 		beqz	a5,.L42
 109:src/System_Mode_test.cpp ****         thread_dispatch();
 821              		.loc 1 109 53 discriminator 6
 822 05c4 97070000 		lbu	a5,.LANCHOR0
 822      83C70700 
 109:src/System_Mode_test.cpp ****         thread_dispatch();
 823              		.loc 1 109 12 discriminator 6
 824 05cc E38607FC 		beqz	a5,.L42
 111:src/System_Mode_test.cpp ****     }
 112:src/System_Mode_test.cpp **** 
 113:src/System_Mode_test.cpp **** }
 825              		.loc 1 113 1
 826 05d0 83308102 		ld	ra,40(sp)
 827              		.cfi_restore 1
 828 05d4 03340102 		ld	s0,32(sp)
 829              		.cfi_restore 8
 830              		.cfi_def_cfa 2, 48
 831 05d8 13010103 		addi	sp,sp,48
GAS LISTING /tmp/ccjhmmD6.s 			page 22


 832              		.cfi_def_cfa_offset 0
 833 05dc 67800000 		jr	ra
 834              		.cfi_endproc
 835              	.LFE5:
 837              		.bss
 838              		.set	.LANCHOR0,. + 0
 841              	_ZL9finishedD:
 842 0000 00       		.zero	1
 845              	_ZL9finishedC:
 846 0001 00       		.zero	1
 849              	_ZL9finishedB:
 850 0002 00       		.zero	1
 853              	_ZL9finishedA:
 854 0003 00       		.zero	1
 855              		.text
 856              	.Letext0:
 857              		.file 2 "src/../h/../lib/hw.h"
 858              		.file 3 "src/../h/syscall_c.hpp"
 859              		.file 4 "src/../h/printing.hpp"
GAS LISTING /tmp/ccjhmmD6.s 			page 23


DEFINED SYMBOLS
                            *ABS*:0000000000000000 System_Mode_test.cpp
     /tmp/ccjhmmD6.s:8      .text:0000000000000000 _ZL9fibonaccim
     /tmp/ccjhmmD6.s:12     .text:0000000000000000 .L0 
     /tmp/ccjhmmD6.s:14     .text:0000000000000000 .L0 
     /tmp/ccjhmmD6.s:15     .text:0000000000000004 .L0 
     /tmp/ccjhmmD6.s:20     .text:0000000000000014 .L0 
     /tmp/ccjhmmD6.s:21     .text:0000000000000014 .L0 
     /tmp/ccjhmmD6.s:22     .text:0000000000000014 .L0 
     /tmp/ccjhmmD6.s:23     .text:0000000000000014 .L0 
     /tmp/ccjhmmD6.s:25     .text:0000000000000018 .L0 
     /tmp/ccjhmmD6.s:28     .text:000000000000001c .L0 
     /tmp/ccjhmmD6.s:31     .text:0000000000000024 .L0 
     /tmp/ccjhmmD6.s:32     .text:0000000000000024 .L0 
     /tmp/ccjhmmD6.s:35     .text:000000000000002c .L0 
     /tmp/ccjhmmD6.s:39     .text:0000000000000030 .L0 
     /tmp/ccjhmmD6.s:40     .text:0000000000000030 .L0 
     /tmp/ccjhmmD6.s:45     .text:0000000000000040 .L0 
     /tmp/ccjhmmD6.s:49     .text:000000000000004c .L0 
     /tmp/ccjhmmD6.s:52     .text:0000000000000050 .L0 
     /tmp/ccjhmmD6.s:53     .text:0000000000000054 .L0 
     /tmp/ccjhmmD6.s:54     .text:0000000000000054 .L0 
     /tmp/ccjhmmD6.s:56     .text:0000000000000058 .L0 
     /tmp/ccjhmmD6.s:57     .text:0000000000000058 .L0 
     /tmp/ccjhmmD6.s:59     .text:000000000000005c .L0 
     /tmp/ccjhmmD6.s:62     .text:0000000000000060 .L0 
     /tmp/ccjhmmD6.s:64     .text:0000000000000064 .L0 
     /tmp/ccjhmmD6.s:68     .text:0000000000000068 .L0 
     /tmp/ccjhmmD6.s:70     .text:0000000000000068 .L0 
     /tmp/ccjhmmD6.s:71     .text:0000000000000068 .L0 
     /tmp/ccjhmmD6.s:74     .text:0000000000000074 .L0 
     /tmp/ccjhmmD6.s:96     .text:0000000000000074 _ZL11workerBodyDPv
     /tmp/ccjhmmD6.s:99     .text:0000000000000074 .L0 
     /tmp/ccjhmmD6.s:101    .text:0000000000000074 .L0 
     /tmp/ccjhmmD6.s:102    .text:0000000000000078 .L0 
     /tmp/ccjhmmD6.s:107    .text:0000000000000088 .L0 
     /tmp/ccjhmmD6.s:108    .text:0000000000000088 .L0 
     /tmp/ccjhmmD6.s:109    .text:0000000000000088 .L0 
     /tmp/ccjhmmD6.s:110    .text:0000000000000088 .L0 
     /tmp/ccjhmmD6.s:112    .text:000000000000008c .L0 
     /tmp/ccjhmmD6.s:115    .text:000000000000008c .L0 
     /tmp/ccjhmmD6.s:116    .text:000000000000008c .L0 
     /tmp/ccjhmmD6.s:121    .text:0000000000000094 .L0 
     /tmp/ccjhmmD6.s:122    .text:0000000000000094 .L0 
     /tmp/ccjhmmD6.s:126    .text:00000000000000a4 .L0 
     /tmp/ccjhmmD6.s:127    .text:00000000000000a4 .L0 
     /tmp/ccjhmmD6.s:133    .text:00000000000000b8 .L0 
     /tmp/ccjhmmD6.s:134    .text:00000000000000b8 .L0 
     /tmp/ccjhmmD6.s:138    .text:00000000000000c8 .L0 
     /tmp/ccjhmmD6.s:144    .text:00000000000000d0 .L0 
     /tmp/ccjhmmD6.s:145    .text:00000000000000d0 .L0 
     /tmp/ccjhmmD6.s:148    .text:00000000000000d8 .L0 
     /tmp/ccjhmmD6.s:149    .text:00000000000000d8 .L0 
     /tmp/ccjhmmD6.s:153    .text:00000000000000e8 .L0 
src/System_Mode_test.cpp:79     .text:00000000000000e8 .L0 
     /tmp/ccjhmmD6.s:159    .text:00000000000000ec .L0 
     /tmp/ccjhmmD6.s:161    .text:00000000000000ec .L0 
GAS LISTING /tmp/ccjhmmD6.s 			page 24


     /tmp/ccjhmmD6.s:164    .text:00000000000000f4 .L0 
     /tmp/ccjhmmD6.s:165    .text:00000000000000f4 .L0 
     /tmp/ccjhmmD6.s:171    .text:0000000000000104 .L0 
     /tmp/ccjhmmD6.s:172    .text:0000000000000104 .L0 
     /tmp/ccjhmmD6.s:177    .text:0000000000000114 .L0 
     /tmp/ccjhmmD6.s:178    .text:0000000000000114 .L0 
     /tmp/ccjhmmD6.s:184    .text:0000000000000128 .L0 
     /tmp/ccjhmmD6.s:185    .text:0000000000000128 .L0 
     /tmp/ccjhmmD6.s:191    .text:000000000000013c .L0 
     /tmp/ccjhmmD6.s:192    .text:000000000000013c .L0 
     /tmp/ccjhmmD6.s:196    .text:000000000000014c .L0 
     /tmp/ccjhmmD6.s:197    .text:000000000000014c .L0 
     /tmp/ccjhmmD6.s:203    .text:0000000000000160 .L0 
     /tmp/ccjhmmD6.s:204    .text:0000000000000160 .L0 
     /tmp/ccjhmmD6.s:208    .text:0000000000000170 .L0 
     /tmp/ccjhmmD6.s:214    .text:0000000000000178 .L0 
     /tmp/ccjhmmD6.s:215    .text:0000000000000178 .L0 
     /tmp/ccjhmmD6.s:218    .text:0000000000000180 .L0 
     /tmp/ccjhmmD6.s:219    .text:0000000000000180 .L0 
     /tmp/ccjhmmD6.s:223    .text:0000000000000190 .L0 
     /tmp/ccjhmmD6.s:224    .text:0000000000000190 .L0 
     /tmp/ccjhmmD6.s:227    .text:000000000000019c .L0 
     /tmp/ccjhmmD6.s:228    .text:000000000000019c .L0 
     /tmp/ccjhmmD6.s:231    .text:00000000000001a4 .L0 
     /tmp/ccjhmmD6.s:232    .text:00000000000001a8 .L0 
     /tmp/ccjhmmD6.s:234    .text:00000000000001ac .L0 
     /tmp/ccjhmmD6.s:235    .text:00000000000001ac .L0 
     /tmp/ccjhmmD6.s:237    .text:00000000000001b0 .L0 
     /tmp/ccjhmmD6.s:240    .text:00000000000001b4 .L0 
     /tmp/ccjhmmD6.s:243    .text:00000000000001b8 .L0 
     /tmp/ccjhmmD6.s:245    .text:00000000000001bc .L0 
     /tmp/ccjhmmD6.s:267    .text:00000000000001bc _ZL11workerBodyCPv
     /tmp/ccjhmmD6.s:270    .text:00000000000001bc .L0 
     /tmp/ccjhmmD6.s:272    .text:00000000000001bc .L0 
     /tmp/ccjhmmD6.s:273    .text:00000000000001c0 .L0 
     /tmp/ccjhmmD6.s:278    .text:00000000000001d0 .L0 
     /tmp/ccjhmmD6.s:279    .text:00000000000001d0 .L0 
     /tmp/ccjhmmD6.s:280    .text:00000000000001d0 .L0 
     /tmp/ccjhmmD6.s:281    .text:00000000000001d0 .L0 
     /tmp/ccjhmmD6.s:283    .text:00000000000001d4 .L0 
     /tmp/ccjhmmD6.s:286    .text:00000000000001d4 .L0 
     /tmp/ccjhmmD6.s:287    .text:00000000000001d4 .L0 
     /tmp/ccjhmmD6.s:292    .text:00000000000001dc .L0 
     /tmp/ccjhmmD6.s:293    .text:00000000000001dc .L0 
     /tmp/ccjhmmD6.s:297    .text:00000000000001ec .L0 
     /tmp/ccjhmmD6.s:298    .text:00000000000001ec .L0 
     /tmp/ccjhmmD6.s:304    .text:0000000000000200 .L0 
     /tmp/ccjhmmD6.s:305    .text:0000000000000200 .L0 
     /tmp/ccjhmmD6.s:309    .text:0000000000000210 .L0 
     /tmp/ccjhmmD6.s:315    .text:0000000000000218 .L0 
     /tmp/ccjhmmD6.s:316    .text:0000000000000218 .L0 
     /tmp/ccjhmmD6.s:319    .text:0000000000000220 .L0 
     /tmp/ccjhmmD6.s:320    .text:0000000000000220 .L0 
     /tmp/ccjhmmD6.s:324    .text:0000000000000230 .L0 
src/System_Mode_test.cpp:52     .text:0000000000000230 .L0 
     /tmp/ccjhmmD6.s:330    .text:0000000000000234 .L0 
     /tmp/ccjhmmD6.s:332    .text:0000000000000234 .L0 
GAS LISTING /tmp/ccjhmmD6.s 			page 25


     /tmp/ccjhmmD6.s:335    .text:000000000000023c .L0 
     /tmp/ccjhmmD6.s:336    .text:000000000000023c .L0 
src/System_Mode_test.cpp:56     .text:000000000000023c .L0 
     /tmp/ccjhmmD6.s:343    .text:0000000000000240 .L0 
     /tmp/ccjhmmD6.s:345    .text:0000000000000240 .L0 
     /tmp/ccjhmmD6.s:349    .text:0000000000000250 .L0 
     /tmp/ccjhmmD6.s:350    .text:0000000000000250 .L0 
     /tmp/ccjhmmD6.s:356    .text:0000000000000264 .L0 
     /tmp/ccjhmmD6.s:357    .text:0000000000000264 .L0 
     /tmp/ccjhmmD6.s:361    .text:0000000000000274 .L0 
     /tmp/ccjhmmD6.s:362    .text:0000000000000274 .L0 
     /tmp/ccjhmmD6.s:368    .text:0000000000000284 .L0 
     /tmp/ccjhmmD6.s:369    .text:0000000000000284 .L0 
     /tmp/ccjhmmD6.s:374    .text:0000000000000294 .L0 
     /tmp/ccjhmmD6.s:375    .text:0000000000000294 .L0 
     /tmp/ccjhmmD6.s:381    .text:00000000000002a8 .L0 
     /tmp/ccjhmmD6.s:382    .text:00000000000002a8 .L0 
     /tmp/ccjhmmD6.s:388    .text:00000000000002bc .L0 
     /tmp/ccjhmmD6.s:389    .text:00000000000002bc .L0 
     /tmp/ccjhmmD6.s:393    .text:00000000000002cc .L0 
     /tmp/ccjhmmD6.s:394    .text:00000000000002cc .L0 
     /tmp/ccjhmmD6.s:400    .text:00000000000002e0 .L0 
     /tmp/ccjhmmD6.s:401    .text:00000000000002e0 .L0 
     /tmp/ccjhmmD6.s:405    .text:00000000000002f0 .L0 
     /tmp/ccjhmmD6.s:411    .text:00000000000002f8 .L0 
     /tmp/ccjhmmD6.s:412    .text:00000000000002f8 .L0 
     /tmp/ccjhmmD6.s:415    .text:0000000000000300 .L0 
     /tmp/ccjhmmD6.s:416    .text:0000000000000300 .L0 
     /tmp/ccjhmmD6.s:420    .text:0000000000000310 .L0 
     /tmp/ccjhmmD6.s:421    .text:0000000000000310 .L0 
     /tmp/ccjhmmD6.s:424    .text:000000000000031c .L0 
     /tmp/ccjhmmD6.s:425    .text:000000000000031c .L0 
     /tmp/ccjhmmD6.s:428    .text:0000000000000324 .L0 
     /tmp/ccjhmmD6.s:429    .text:0000000000000328 .L0 
     /tmp/ccjhmmD6.s:431    .text:000000000000032c .L0 
     /tmp/ccjhmmD6.s:432    .text:000000000000032c .L0 
     /tmp/ccjhmmD6.s:434    .text:0000000000000330 .L0 
     /tmp/ccjhmmD6.s:437    .text:0000000000000334 .L0 
     /tmp/ccjhmmD6.s:440    .text:0000000000000338 .L0 
     /tmp/ccjhmmD6.s:442    .text:000000000000033c .L0 
     /tmp/ccjhmmD6.s:455    .text:000000000000033c _ZL11workerBodyBPv
     /tmp/ccjhmmD6.s:458    .text:000000000000033c .L0 
     /tmp/ccjhmmD6.s:460    .text:000000000000033c .L0 
     /tmp/ccjhmmD6.s:461    .text:0000000000000340 .L0 
     /tmp/ccjhmmD6.s:466    .text:0000000000000350 .L0 
     /tmp/ccjhmmD6.s:467    .text:0000000000000350 .L0 
     /tmp/ccjhmmD6.s:468    .text:0000000000000350 .L0 
     /tmp/ccjhmmD6.s:469    .text:0000000000000350 .L0 
     /tmp/ccjhmmD6.s:471    .text:0000000000000354 .L0 
     /tmp/ccjhmmD6.s:475    .text:0000000000000354 .L0 
     /tmp/ccjhmmD6.s:476    .text:0000000000000354 .L0 
     /tmp/ccjhmmD6.s:484    .text:000000000000035c .L0 
     /tmp/ccjhmmD6.s:485    .text:000000000000035c .L0 
     /tmp/ccjhmmD6.s:489    .text:0000000000000364 .L0 
     /tmp/ccjhmmD6.s:493    .text:0000000000000368 .L0 
     /tmp/ccjhmmD6.s:498    .text:0000000000000370 .L0 
     /tmp/ccjhmmD6.s:502    .text:0000000000000374 .L0 
GAS LISTING /tmp/ccjhmmD6.s 			page 26


     /tmp/ccjhmmD6.s:506    .text:0000000000000380 .L0 
     /tmp/ccjhmmD6.s:515    .text:0000000000000388 .L0 
     /tmp/ccjhmmD6.s:520    .text:0000000000000390 .L0 
     /tmp/ccjhmmD6.s:524    .text:0000000000000394 .L0 
     /tmp/ccjhmmD6.s:528    .text:000000000000039c .L0 
     /tmp/ccjhmmD6.s:529    .text:000000000000039c .L0 
     /tmp/ccjhmmD6.s:533    .text:00000000000003ac .L0 
     /tmp/ccjhmmD6.s:534    .text:00000000000003ac .L0 
     /tmp/ccjhmmD6.s:540    .text:00000000000003c0 .L0 
     /tmp/ccjhmmD6.s:541    .text:00000000000003c0 .L0 
     /tmp/ccjhmmD6.s:546    .text:00000000000003d0 .L0 
     /tmp/ccjhmmD6.s:547    .text:00000000000003d0 .L0 
     /tmp/ccjhmmD6.s:553    .text:00000000000003d8 .L0 
src/System_Mode_test.cpp:37     .text:00000000000003d8 .L0 
     /tmp/ccjhmmD6.s:565    .text:00000000000003e0 .L0 
     /tmp/ccjhmmD6.s:566    .text:00000000000003e0 .L0 
     /tmp/ccjhmmD6.s:570    .text:00000000000003f0 .L0 
     /tmp/ccjhmmD6.s:571    .text:00000000000003f0 .L0 
     /tmp/ccjhmmD6.s:574    .text:00000000000003fc .L0 
     /tmp/ccjhmmD6.s:575    .text:00000000000003fc .L0 
     /tmp/ccjhmmD6.s:578    .text:0000000000000404 .L0 
     /tmp/ccjhmmD6.s:579    .text:0000000000000408 .L0 
     /tmp/ccjhmmD6.s:581    .text:000000000000040c .L0 
     /tmp/ccjhmmD6.s:582    .text:000000000000040c .L0 
     /tmp/ccjhmmD6.s:584    .text:0000000000000410 .L0 
     /tmp/ccjhmmD6.s:586    .text:0000000000000414 .L0 
     /tmp/ccjhmmD6.s:589    .text:0000000000000418 .L0 
     /tmp/ccjhmmD6.s:591    .text:000000000000041c .L0 
     /tmp/ccjhmmD6.s:601    .text:000000000000041c _ZL11workerBodyAPv
     /tmp/ccjhmmD6.s:604    .text:000000000000041c .L0 
     /tmp/ccjhmmD6.s:606    .text:000000000000041c .L0 
     /tmp/ccjhmmD6.s:607    .text:0000000000000420 .L0 
     /tmp/ccjhmmD6.s:612    .text:0000000000000430 .L0 
     /tmp/ccjhmmD6.s:613    .text:0000000000000430 .L0 
     /tmp/ccjhmmD6.s:614    .text:0000000000000430 .L0 
     /tmp/ccjhmmD6.s:615    .text:0000000000000430 .L0 
     /tmp/ccjhmmD6.s:617    .text:0000000000000434 .L0 
     /tmp/ccjhmmD6.s:621    .text:0000000000000434 .L0 
     /tmp/ccjhmmD6.s:622    .text:0000000000000434 .L0 
     /tmp/ccjhmmD6.s:630    .text:000000000000043c .L0 
     /tmp/ccjhmmD6.s:631    .text:000000000000043c .L0 
     /tmp/ccjhmmD6.s:635    .text:0000000000000444 .L0 
     /tmp/ccjhmmD6.s:639    .text:0000000000000448 .L0 
     /tmp/ccjhmmD6.s:644    .text:0000000000000450 .L0 
     /tmp/ccjhmmD6.s:648    .text:0000000000000454 .L0 
     /tmp/ccjhmmD6.s:652    .text:0000000000000460 .L0 
     /tmp/ccjhmmD6.s:662    .text:0000000000000468 .L0 
     /tmp/ccjhmmD6.s:666    .text:000000000000046c .L0 
     /tmp/ccjhmmD6.s:670    .text:0000000000000474 .L0 
     /tmp/ccjhmmD6.s:671    .text:0000000000000474 .L0 
     /tmp/ccjhmmD6.s:675    .text:0000000000000484 .L0 
     /tmp/ccjhmmD6.s:676    .text:0000000000000484 .L0 
     /tmp/ccjhmmD6.s:682    .text:0000000000000498 .L0 
     /tmp/ccjhmmD6.s:683    .text:0000000000000498 .L0 
     /tmp/ccjhmmD6.s:688    .text:00000000000004a8 .L0 
     /tmp/ccjhmmD6.s:689    .text:00000000000004a8 .L0 
     /tmp/ccjhmmD6.s:697    .text:00000000000004b0 .L0 
GAS LISTING /tmp/ccjhmmD6.s 			page 27


     /tmp/ccjhmmD6.s:698    .text:00000000000004b0 .L0 
     /tmp/ccjhmmD6.s:702    .text:00000000000004c0 .L0 
     /tmp/ccjhmmD6.s:703    .text:00000000000004c0 .L0 
     /tmp/ccjhmmD6.s:706    .text:00000000000004cc .L0 
     /tmp/ccjhmmD6.s:707    .text:00000000000004d0 .L0 
     /tmp/ccjhmmD6.s:709    .text:00000000000004d4 .L0 
     /tmp/ccjhmmD6.s:710    .text:00000000000004d4 .L0 
     /tmp/ccjhmmD6.s:712    .text:00000000000004d8 .L0 
     /tmp/ccjhmmD6.s:714    .text:00000000000004dc .L0 
     /tmp/ccjhmmD6.s:717    .text:00000000000004e0 .L0 
     /tmp/ccjhmmD6.s:719    .text:00000000000004e4 .L0 
     /tmp/ccjhmmD6.s:739    .text:00000000000004e4 _Z16System_Mode_testv
     /tmp/ccjhmmD6.s:742    .text:00000000000004e4 .L0 
     /tmp/ccjhmmD6.s:743    .text:00000000000004e4 .L0 
     /tmp/ccjhmmD6.s:744    .text:00000000000004e8 .L0 
     /tmp/ccjhmmD6.s:747    .text:00000000000004f0 .L0 
     /tmp/ccjhmmD6.s:748    .text:00000000000004f0 .L0 
     /tmp/ccjhmmD6.s:750    .text:00000000000004f4 .L0 
     /tmp/ccjhmmD6.s:752    .text:00000000000004f4 .L0 
     /tmp/ccjhmmD6.s:753    .text:00000000000004f4 .L0 
     /tmp/ccjhmmD6.s:754    .text:00000000000004f4 .L0 
     /tmp/ccjhmmD6.s:760    .text:000000000000050c .L0 
     /tmp/ccjhmmD6.s:761    .text:000000000000050c .L0 
     /tmp/ccjhmmD6.s:765    .text:000000000000051c .L0 
     /tmp/ccjhmmD6.s:766    .text:000000000000051c .L0 
     /tmp/ccjhmmD6.s:772    .text:0000000000000534 .L0 
     /tmp/ccjhmmD6.s:773    .text:0000000000000534 .L0 
     /tmp/ccjhmmD6.s:777    .text:0000000000000544 .L0 
     /tmp/ccjhmmD6.s:778    .text:0000000000000544 .L0 
     /tmp/ccjhmmD6.s:784    .text:000000000000055c .L0 
     /tmp/ccjhmmD6.s:785    .text:000000000000055c .L0 
     /tmp/ccjhmmD6.s:789    .text:000000000000056c .L0 
     /tmp/ccjhmmD6.s:790    .text:000000000000056c .L0 
     /tmp/ccjhmmD6.s:796    .text:0000000000000584 .L0 
     /tmp/ccjhmmD6.s:797    .text:0000000000000584 .L0 
     /tmp/ccjhmmD6.s:803    .text:0000000000000598 .L0 
     /tmp/ccjhmmD6.s:804    .text:0000000000000598 .L0 
     /tmp/ccjhmmD6.s:808    .text:00000000000005a0 .L0 
     /tmp/ccjhmmD6.s:809    .text:00000000000005a0 .L0 
     /tmp/ccjhmmD6.s:810    .text:00000000000005a0 .L0 
     /tmp/ccjhmmD6.s:812    .text:00000000000005a8 .L0 
     /tmp/ccjhmmD6.s:814    .text:00000000000005ac .L0 
     /tmp/ccjhmmD6.s:816    .text:00000000000005b4 .L0 
     /tmp/ccjhmmD6.s:818    .text:00000000000005b8 .L0 
     /tmp/ccjhmmD6.s:820    .text:00000000000005c0 .L0 
     /tmp/ccjhmmD6.s:822    .text:00000000000005c4 .L0 
     /tmp/ccjhmmD6.s:824    .text:00000000000005cc .L0 
     /tmp/ccjhmmD6.s:826    .text:00000000000005d0 .L0 
     /tmp/ccjhmmD6.s:827    .text:00000000000005d4 .L0 
     /tmp/ccjhmmD6.s:829    .text:00000000000005d8 .L0 
     /tmp/ccjhmmD6.s:830    .text:00000000000005d8 .L0 
     /tmp/ccjhmmD6.s:832    .text:00000000000005dc .L0 
     /tmp/ccjhmmD6.s:834    .text:00000000000005e0 .L0 
     /tmp/ccjhmmD6.s:838    .bss:0000000000000000 .LANCHOR0
     /tmp/ccjhmmD6.s:841    .bss:0000000000000000 _ZL9finishedD
     /tmp/ccjhmmD6.s:845    .bss:0000000000000001 _ZL9finishedC
     /tmp/ccjhmmD6.s:849    .bss:0000000000000002 _ZL9finishedB
GAS LISTING /tmp/ccjhmmD6.s 			page 28


     /tmp/ccjhmmD6.s:853    .bss:0000000000000003 _ZL9finishedA
     /tmp/ccjhmmD6.s:860    .text:00000000000005e0 .L0 
     /tmp/ccjhmmD6.s:79     .rodata.str1.8:0000000000000000 .LC0
     /tmp/ccjhmmD6.s:122    .text:0000000000000094 .L0 
     /tmp/ccjhmmD6.s:82     .rodata.str1.8:0000000000000008 .LC1
     /tmp/ccjhmmD6.s:134    .text:00000000000000b8 .L0 
     /tmp/ccjhmmD6.s:85     .rodata.str1.8:0000000000000010 .LC2
     /tmp/ccjhmmD6.s:149    .text:00000000000000d8 .L0 
     /tmp/ccjhmmD6.s:88     .rodata.str1.8:0000000000000020 .LC3
     /tmp/ccjhmmD6.s:172    .text:0000000000000104 .L0 
     /tmp/ccjhmmD6.s:185    .text:0000000000000128 .L0 
     /tmp/ccjhmmD6.s:192    .text:000000000000013c .L0 
     /tmp/ccjhmmD6.s:204    .text:0000000000000160 .L0 
     /tmp/ccjhmmD6.s:91     .rodata.str1.8:0000000000000030 .LC4
     /tmp/ccjhmmD6.s:219    .text:0000000000000180 .L0 
     /tmp/ccjhmmD6.s:225    .text:0000000000000194 .L0 
     /tmp/ccjhmmD6.s:250    .rodata.str1.8:0000000000000040 .LC5
     /tmp/ccjhmmD6.s:293    .text:00000000000001dc .L0 
     /tmp/ccjhmmD6.s:305    .text:0000000000000200 .L0 
     /tmp/ccjhmmD6.s:253    .rodata.str1.8:0000000000000048 .LC6
     /tmp/ccjhmmD6.s:320    .text:0000000000000220 .L0 
     /tmp/ccjhmmD6.s:256    .rodata.str1.8:0000000000000058 .LC7
     /tmp/ccjhmmD6.s:345    .text:0000000000000240 .L0 
     /tmp/ccjhmmD6.s:357    .text:0000000000000264 .L0 
     /tmp/ccjhmmD6.s:259    .rodata.str1.8:0000000000000060 .LC8
     /tmp/ccjhmmD6.s:369    .text:0000000000000284 .L0 
     /tmp/ccjhmmD6.s:382    .text:00000000000002a8 .L0 
     /tmp/ccjhmmD6.s:389    .text:00000000000002bc .L0 
     /tmp/ccjhmmD6.s:401    .text:00000000000002e0 .L0 
     /tmp/ccjhmmD6.s:262    .rodata.str1.8:0000000000000070 .LC9
     /tmp/ccjhmmD6.s:416    .text:0000000000000300 .L0 
     /tmp/ccjhmmD6.s:422    .text:0000000000000314 .L0 
     /tmp/ccjhmmD6.s:447    .rodata.str1.8:0000000000000080 .LC10
     /tmp/ccjhmmD6.s:529    .text:000000000000039c .L0 
     /tmp/ccjhmmD6.s:541    .text:00000000000003c0 .L0 
     /tmp/ccjhmmD6.s:450    .rodata.str1.8:0000000000000088 .LC11
     /tmp/ccjhmmD6.s:566    .text:00000000000003e0 .L0 
     /tmp/ccjhmmD6.s:572    .text:00000000000003f4 .L0 
     /tmp/ccjhmmD6.s:596    .rodata.str1.8:0000000000000098 .LC12
     /tmp/ccjhmmD6.s:671    .text:0000000000000474 .L0 
     /tmp/ccjhmmD6.s:683    .text:0000000000000498 .L0 
     /tmp/ccjhmmD6.s:698    .text:00000000000004b0 .L0 
     /tmp/ccjhmmD6.s:704    .text:00000000000004c4 .L0 
     /tmp/ccjhmmD6.s:755    .text:00000000000004f8 .L0 
     /tmp/ccjhmmD6.s:724    .rodata.str1.8:00000000000000a0 .LC13
     /tmp/ccjhmmD6.s:761    .text:000000000000050c .L0 
     /tmp/ccjhmmD6.s:767    .text:0000000000000520 .L0 
     /tmp/ccjhmmD6.s:727    .rodata.str1.8:00000000000000b8 .LC14
     /tmp/ccjhmmD6.s:773    .text:0000000000000534 .L0 
     /tmp/ccjhmmD6.s:779    .text:0000000000000548 .L0 
     /tmp/ccjhmmD6.s:730    .rodata.str1.8:00000000000000d0 .LC15
     /tmp/ccjhmmD6.s:785    .text:000000000000055c .L0 
     /tmp/ccjhmmD6.s:791    .text:0000000000000570 .L0 
     /tmp/ccjhmmD6.s:733    .rodata.str1.8:00000000000000e8 .LC16
     /tmp/ccjhmmD6.s:797    .text:0000000000000584 .L0 
     /tmp/ccjhmmD6.s:810    .text:00000000000005a0 .L0 
     /tmp/ccjhmmD6.s:814    .text:00000000000005ac .L0 
GAS LISTING /tmp/ccjhmmD6.s 			page 29


     /tmp/ccjhmmD6.s:818    .text:00000000000005b8 .L0 
     /tmp/ccjhmmD6.s:822    .text:00000000000005c4 .L0 
     /tmp/ccjhmmD6.s:50     .text:0000000000000050 .L1
     /tmp/ccjhmmD6.s:67     .text:0000000000000068 .L6
     /tmp/ccjhmmD6.s:37     .text:0000000000000030 .L3
     /tmp/ccjhmmD6.s:142    .text:00000000000000d0 .L9
     /tmp/ccjhmmD6.s:119    .text:0000000000000094 .L13
     /tmp/ccjhmmD6.s:212    .text:0000000000000178 .L11
     /tmp/ccjhmmD6.s:189    .text:000000000000013c .L14
     /tmp/ccjhmmD6.s:313    .text:0000000000000218 .L17
     /tmp/ccjhmmD6.s:290    .text:00000000000001dc .L21
     /tmp/ccjhmmD6.s:409    .text:00000000000002f8 .L19
     /tmp/ccjhmmD6.s:386    .text:00000000000002bc .L22
     /tmp/ccjhmmD6.s:522    .text:0000000000000394 .L30
     /tmp/ccjhmmD6.s:510    .text:0000000000000388 .L25
     /tmp/ccjhmmD6.s:479    .text:000000000000035c .L26
     /tmp/ccjhmmD6.s:499    .text:0000000000000374 .L27
     /tmp/ccjhmmD6.s:550    .text:00000000000003d8 .L32
     /tmp/ccjhmmD6.s:561    .text:00000000000003e0 .L24
     /tmp/ccjhmmD6.s:491    .text:0000000000000368 .L28
     /tmp/ccjhmmD6.s:517    .text:0000000000000390 .L29
     /tmp/ccjhmmD6.s:664    .text:000000000000046c .L39
     /tmp/ccjhmmD6.s:656    .text:0000000000000468 .L35
     /tmp/ccjhmmD6.s:625    .text:000000000000043c .L36
     /tmp/ccjhmmD6.s:645    .text:0000000000000454 .L37
     /tmp/ccjhmmD6.s:692    .text:00000000000004b0 .L34
     /tmp/ccjhmmD6.s:637    .text:0000000000000448 .L38
     /tmp/ccjhmmD6.s:806    .text:00000000000005a0 .L43
     /tmp/ccjhmmD6.s:801    .text:0000000000000598 .L42
     /tmp/ccjhmmD6.s:1957   .debug_abbrev:0000000000000000 .Ldebug_abbrev0
     /tmp/ccjhmmD6.s:2656   .debug_str:000000000000011c .LASF38
     /tmp/ccjhmmD6.s:2660   .debug_str:00000000000001ef .LASF39
     /tmp/ccjhmmD6.s:2662   .debug_str:0000000000000208 .LASF40
     /tmp/ccjhmmD6.s:5      .text:0000000000000000 .Ltext0
     /tmp/ccjhmmD6.s:856    .text:00000000000005e0 .Letext0
     /tmp/ccjhmmD6.s:2618   .debug_line:0000000000000000 .Ldebug_line0
     /tmp/ccjhmmD6.s:2630   .debug_str:0000000000000034 .LASF0
     /tmp/ccjhmmD6.s:2648   .debug_str:00000000000000ca .LASF1
     /tmp/ccjhmmD6.s:2644   .debug_str:00000000000000aa .LASF2
     /tmp/ccjhmmD6.s:2700   .debug_str:000000000000031b .LASF3
     /tmp/ccjhmmD6.s:2626   .debug_str:0000000000000028 .LASF4
     /tmp/ccjhmmD6.s:2646   .debug_str:00000000000000b8 .LASF5
     /tmp/ccjhmmD6.s:2622   .debug_str:0000000000000013 .LASF6
     /tmp/ccjhmmD6.s:2620   .debug_str:0000000000000000 .LASF7
     /tmp/ccjhmmD6.s:2638   .debug_str:0000000000000075 .LASF8
     /tmp/ccjhmmD6.s:2670   .debug_str:0000000000000255 .LASF9
     /tmp/ccjhmmD6.s:2624   .debug_str:000000000000001a .LASF10
     /tmp/ccjhmmD6.s:2708   .debug_str:0000000000000347 .LASF11
     /tmp/ccjhmmD6.s:2640   .debug_str:0000000000000088 .LASF12
     /tmp/ccjhmmD6.s:2702   .debug_str:0000000000000321 .LASF13
     /tmp/ccjhmmD6.s:2682   .debug_str:00000000000002b7 .LASF14
     /tmp/ccjhmmD6.s:2652   .debug_str:00000000000000eb .LASF15
     /tmp/ccjhmmD6.s:2634   .debug_str:000000000000004a .LASF16
     /tmp/ccjhmmD6.s:2676   .debug_str:0000000000000282 .LASF17
     /tmp/ccjhmmD6.s:2678   .debug_str:0000000000000298 .LASF18
     /tmp/ccjhmmD6.s:2698   .debug_str:0000000000000313 .LASF41
     /tmp/ccjhmmD6.s:2684   .debug_str:00000000000002c7 .LASF19
GAS LISTING /tmp/ccjhmmD6.s 			page 30


     /tmp/ccjhmmD6.s:2628   .debug_str:000000000000002f .LASF20
     /tmp/ccjhmmD6.s:2686   .debug_str:00000000000002d1 .LASF21
     /tmp/ccjhmmD6.s:2688   .debug_str:00000000000002db .LASF22
     /tmp/ccjhmmD6.s:2690   .debug_str:00000000000002e5 .LASF23
     /tmp/ccjhmmD6.s:2672   .debug_str:0000000000000265 .LASF42
     /tmp/ccjhmmD6.s:2680   .debug_str:00000000000002a1 .LASF43
     /tmp/ccjhmmD6.s:740    .text:00000000000004e4 .LFB5
     /tmp/ccjhmmD6.s:835    .text:00000000000005e0 .LFE5
     /tmp/ccjhmmD6.s:2694   .debug_str:00000000000002ff .LASF24
     /tmp/ccjhmmD6.s:758    .text:000000000000050c .LVL93
     /tmp/ccjhmmD6.s:763    .text:000000000000051c .LVL94
     /tmp/ccjhmmD6.s:770    .text:0000000000000534 .LVL95
     /tmp/ccjhmmD6.s:775    .text:0000000000000544 .LVL96
     /tmp/ccjhmmD6.s:782    .text:000000000000055c .LVL97
     /tmp/ccjhmmD6.s:787    .text:000000000000056c .LVL98
     /tmp/ccjhmmD6.s:794    .text:0000000000000584 .LVL99
     /tmp/ccjhmmD6.s:799    .text:0000000000000594 .LVL100
     /tmp/ccjhmmD6.s:805    .text:00000000000005a0 .LVL101
     /tmp/ccjhmmD6.s:2674   .debug_str:0000000000000276 .LASF26
     /tmp/ccjhmmD6.s:97     .text:0000000000000074 .LFB4
     /tmp/ccjhmmD6.s:246    .text:00000000000001bc .LFE4
     /tmp/ccjhmmD6.s:2369   .debug_loc:0000000000000000 .LLST1
     /tmp/ccjhmmD6.s:2383   .debug_loc:0000000000000039 .LLST2
     /tmp/ccjhmmD6.s:2666   .debug_str:0000000000000242 .LASF25
     /tmp/ccjhmmD6.s:2403   .debug_loc:0000000000000096 .LLST3
     /tmp/ccjhmmD6.s:124    .text:00000000000000a4 .LVL10
     /tmp/ccjhmmD6.s:131    .text:00000000000000b8 .LVL11
     /tmp/ccjhmmD6.s:136    .text:00000000000000c8 .LVL12
     /tmp/ccjhmmD6.s:151    .text:00000000000000e8 .LVL15
     /tmp/ccjhmmD6.s:162    .text:00000000000000f4 .LVL16
     /tmp/ccjhmmD6.s:167    .text:0000000000000100 .LVL17
     /tmp/ccjhmmD6.s:175    .text:0000000000000114 .LVL20
     /tmp/ccjhmmD6.s:182    .text:0000000000000128 .LVL21
     /tmp/ccjhmmD6.s:187    .text:0000000000000138 .LVL22
     /tmp/ccjhmmD6.s:194    .text:000000000000014c .LVL23
     /tmp/ccjhmmD6.s:201    .text:0000000000000160 .LVL24
     /tmp/ccjhmmD6.s:206    .text:0000000000000170 .LVL25
     /tmp/ccjhmmD6.s:221    .text:0000000000000190 .LVL28
     /tmp/ccjhmmD6.s:229    .text:00000000000001a4 .LVL29
     /tmp/ccjhmmD6.s:2668   .debug_str:0000000000000249 .LASF27
     /tmp/ccjhmmD6.s:268    .text:00000000000001bc .LFB3
     /tmp/ccjhmmD6.s:443    .text:000000000000033c .LFE3
     /tmp/ccjhmmD6.s:2414   .debug_loc:00000000000000cc .LLST4
     /tmp/ccjhmmD6.s:2428   .debug_loc:0000000000000105 .LLST5
     /tmp/ccjhmmD6.s:2448   .debug_loc:0000000000000162 .LLST6
     /tmp/ccjhmmD6.s:2456   .debug_loc:0000000000000186 .LLST7
     /tmp/ccjhmmD6.s:295    .text:00000000000001ec .LVL35
     /tmp/ccjhmmD6.s:302    .text:0000000000000200 .LVL36
     /tmp/ccjhmmD6.s:307    .text:0000000000000210 .LVL37
     /tmp/ccjhmmD6.s:322    .text:0000000000000230 .LVL40
     /tmp/ccjhmmD6.s:333    .text:000000000000023c .LVL41
     /tmp/ccjhmmD6.s:347    .text:0000000000000250 .LVL43
     /tmp/ccjhmmD6.s:354    .text:0000000000000264 .LVL44
     /tmp/ccjhmmD6.s:359    .text:0000000000000274 .LVL45
     /tmp/ccjhmmD6.s:364    .text:0000000000000280 .LVL46
     /tmp/ccjhmmD6.s:372    .text:0000000000000294 .LVL49
     /tmp/ccjhmmD6.s:379    .text:00000000000002a8 .LVL50
GAS LISTING /tmp/ccjhmmD6.s 			page 31


     /tmp/ccjhmmD6.s:384    .text:00000000000002b8 .LVL51
     /tmp/ccjhmmD6.s:391    .text:00000000000002cc .LVL52
     /tmp/ccjhmmD6.s:398    .text:00000000000002e0 .LVL53
     /tmp/ccjhmmD6.s:403    .text:00000000000002f0 .LVL54
     /tmp/ccjhmmD6.s:418    .text:0000000000000310 .LVL57
     /tmp/ccjhmmD6.s:426    .text:0000000000000324 .LVL58
     /tmp/ccjhmmD6.s:2696   .debug_str:0000000000000307 .LASF28
     /tmp/ccjhmmD6.s:456    .text:000000000000033c .LFB2
     /tmp/ccjhmmD6.s:592    .text:000000000000041c .LFE2
     /tmp/ccjhmmD6.s:2467   .debug_loc:00000000000001bc .LLST8
     /tmp/ccjhmmD6.s:474    .text:0000000000000354 .LBB2
     /tmp/ccjhmmD6.s:563    .text:00000000000003e0 .LBE2
     /tmp/ccjhmmD6.s:2481   .debug_loc:00000000000001f5 .LLST9
     /tmp/ccjhmmD6.s:2604   .debug_ranges:0000000000000000 .Ldebug_ranges0
     /tmp/ccjhmmD6.s:2493   .debug_loc:000000000000022c .LLST10
     /tmp/ccjhmmD6.s:496    .text:0000000000000370 .LBB6
     /tmp/ccjhmmD6.s:511    .text:0000000000000388 .LBE6
     /tmp/ccjhmmD6.s:2509   .debug_loc:0000000000000276 .LLST11
     /tmp/ccjhmmD6.s:486    .text:0000000000000364 .LVL64
     /tmp/ccjhmmD6.s:531    .text:00000000000003ac .LVL70
     /tmp/ccjhmmD6.s:538    .text:00000000000003c0 .LVL71
     /tmp/ccjhmmD6.s:543    .text:00000000000003d0 .LVL72
     /tmp/ccjhmmD6.s:568    .text:00000000000003f0 .LVL75
     /tmp/ccjhmmD6.s:576    .text:0000000000000404 .LVL76
     /tmp/ccjhmmD6.s:2664   .debug_str:0000000000000236 .LASF29
     /tmp/ccjhmmD6.s:602    .text:000000000000041c .LFB1
     /tmp/ccjhmmD6.s:720    .text:00000000000004e4 .LFE1
     /tmp/ccjhmmD6.s:2520   .debug_loc:00000000000002ac .LLST12
     /tmp/ccjhmmD6.s:620    .text:0000000000000434 .LBB10
     /tmp/ccjhmmD6.s:695    .text:00000000000004b0 .LBE10
     /tmp/ccjhmmD6.s:2534   .debug_loc:00000000000002e5 .LLST13
     /tmp/ccjhmmD6.s:2546   .debug_loc:000000000000031c .LLST14
     /tmp/ccjhmmD6.s:642    .text:0000000000000450 .LBB14
     /tmp/ccjhmmD6.s:657    .text:0000000000000468 .LBE14
     /tmp/ccjhmmD6.s:2558   .debug_loc:0000000000000353 .LLST15
     /tmp/ccjhmmD6.s:632    .text:0000000000000444 .LVL81
     /tmp/ccjhmmD6.s:673    .text:0000000000000484 .LVL87
     /tmp/ccjhmmD6.s:680    .text:0000000000000498 .LVL88
     /tmp/ccjhmmD6.s:685    .text:00000000000004a8 .LVL89
     /tmp/ccjhmmD6.s:700    .text:00000000000004c0 .LVL91
     /tmp/ccjhmmD6.s:2704   .debug_str:0000000000000331 .LASF44
     /tmp/ccjhmmD6.s:9      .text:0000000000000000 .LFB0
     /tmp/ccjhmmD6.s:75     .text:0000000000000074 .LFE0
     /tmp/ccjhmmD6.s:2569   .debug_loc:0000000000000389 .LLST0
     /tmp/ccjhmmD6.s:42     .text:000000000000003c .LVL2
     /tmp/ccjhmmD6.s:47     .text:000000000000004c .LVL3
     /tmp/ccjhmmD6.s:72     .text:0000000000000070 .LVL6
     /tmp/ccjhmmD6.s:2654   .debug_str:00000000000000f7 .LASF30
     /tmp/ccjhmmD6.s:2650   .debug_str:00000000000000dd .LASF32
     /tmp/ccjhmmD6.s:2642   .debug_str:0000000000000097 .LASF31
     /tmp/ccjhmmD6.s:2706   .debug_str:000000000000033b .LASF33
     /tmp/ccjhmmD6.s:2636   .debug_str:0000000000000060 .LASF34
     /tmp/ccjhmmD6.s:2692   .debug_str:00000000000002ef .LASF35
     /tmp/ccjhmmD6.s:2658   .debug_str:00000000000001e0 .LASF36
     /tmp/ccjhmmD6.s:2632   .debug_str:0000000000000041 .LASF37
     /tmp/ccjhmmD6.s:100    .text:0000000000000074 .LVL7
     /tmp/ccjhmmD6.s:118    .text:0000000000000094 .LVL9
GAS LISTING /tmp/ccjhmmD6.s 			page 32


     /tmp/ccjhmmD6.s:114    .text:000000000000008c .LVL8
     /tmp/ccjhmmD6.s:139    .text:00000000000000cc .LVL13
     /tmp/ccjhmmD6.s:141    .text:00000000000000d0 .LVL14
     /tmp/ccjhmmD6.s:209    .text:0000000000000174 .LVL26
     /tmp/ccjhmmD6.s:211    .text:0000000000000178 .LVL27
     /tmp/ccjhmmD6.s:238    .text:00000000000001b0 .LVL30
     /tmp/ccjhmmD6.s:169    .text:0000000000000104 .LVL18
     /tmp/ccjhmmD6.s:173    .text:000000000000010c .LVL19
     /tmp/ccjhmmD6.s:241    .text:00000000000001b4 .LVL31
     /tmp/ccjhmmD6.s:271    .text:00000000000001bc .LVL32
     /tmp/ccjhmmD6.s:289    .text:00000000000001dc .LVL34
     /tmp/ccjhmmD6.s:285    .text:00000000000001d4 .LVL33
     /tmp/ccjhmmD6.s:310    .text:0000000000000214 .LVL38
     /tmp/ccjhmmD6.s:312    .text:0000000000000218 .LVL39
     /tmp/ccjhmmD6.s:406    .text:00000000000002f4 .LVL55
     /tmp/ccjhmmD6.s:408    .text:00000000000002f8 .LVL56
     /tmp/ccjhmmD6.s:435    .text:0000000000000330 .LVL59
     /tmp/ccjhmmD6.s:341    .text:0000000000000240 .LVL42
     /tmp/ccjhmmD6.s:366    .text:0000000000000284 .LVL47
     /tmp/ccjhmmD6.s:370    .text:000000000000028c .LVL48
     /tmp/ccjhmmD6.s:438    .text:0000000000000334 .LVL60
     /tmp/ccjhmmD6.s:459    .text:000000000000033c .LVL61
     /tmp/ccjhmmD6.s:478    .text:000000000000035c .LVL63
     /tmp/ccjhmmD6.s:473    .text:0000000000000354 .LVL62
     /tmp/ccjhmmD6.s:587    .text:0000000000000414 .LVL77
     /tmp/ccjhmmD6.s:521    .text:0000000000000394 .LVL69
     /tmp/ccjhmmD6.s:549    .text:00000000000003d8 .LVL73
     /tmp/ccjhmmD6.s:560    .text:00000000000003e0 .LVL74
     /tmp/ccjhmmD6.s:500    .text:0000000000000374 .LVL66
     /tmp/ccjhmmD6.s:509    .text:0000000000000388 .LVL68
     /tmp/ccjhmmD6.s:605    .text:000000000000041c .LVL78
     /tmp/ccjhmmD6.s:624    .text:000000000000043c .LVL80
     /tmp/ccjhmmD6.s:619    .text:0000000000000434 .LVL79
     /tmp/ccjhmmD6.s:715    .text:00000000000004dc .LVL92
     /tmp/ccjhmmD6.s:663    .text:000000000000046c .LVL86
     /tmp/ccjhmmD6.s:691    .text:00000000000004b0 .LVL90
     /tmp/ccjhmmD6.s:646    .text:0000000000000454 .LVL83
     /tmp/ccjhmmD6.s:655    .text:0000000000000468 .LVL85
     /tmp/ccjhmmD6.s:13     .text:0000000000000000 .LVL0
     /tmp/ccjhmmD6.s:36     .text:0000000000000030 .LVL1
     /tmp/ccjhmmD6.s:60     .text:000000000000005c .LVL4
     /tmp/ccjhmmD6.s:66     .text:0000000000000068 .LVL5
     /tmp/ccjhmmD6.s:861    .debug_info:0000000000000000 .Ldebug_info0
     /tmp/ccjhmmD6.s:481    .text:000000000000035c .LBB4
     /tmp/ccjhmmD6.s:513    .text:0000000000000388 .LBE4
     /tmp/ccjhmmD6.s:545    .text:00000000000003d0 .LBB8
     /tmp/ccjhmmD6.s:551    .text:00000000000003d8 .LBE8
     /tmp/ccjhmmD6.s:627    .text:000000000000043c .LBB12
     /tmp/ccjhmmD6.s:659    .text:0000000000000468 .LBE12
     /tmp/ccjhmmD6.s:687    .text:00000000000004a8 .LBB16
     /tmp/ccjhmmD6.s:693    .text:00000000000004b0 .LBE16

UNDEFINED SYMBOLS
_Z15thread_dispatchv
_Z11printStringPKc
_Z8printIntiii
_Z13thread_createPP7_threadPFvPvES2_
GAS LISTING /tmp/ccjhmmD6.s 			page 33


