GAS LISTING /tmp/ccw7uBqy.s 			page 1


   1              		.file	"Thread.cpp"
   2              		.option pic
   3              		.option norelax
   4              		.text
   5              	.Ltext0:
   6              		.section	.text._ZN6Thread3runEv,"axG",@progbits,_ZN6Thread3runEv,comdat
   7              		.align	2
   8              		.weak	_ZN6Thread3runEv
  10              	_ZN6Thread3runEv:
  11              	.LFB0:
  12              		.file 1 "src/../h/syscall_cpp.hpp"
   1:src/../h/syscall_cpp.hpp **** //
   2:src/../h/syscall_cpp.hpp **** // Created by os on 4/30/23.
   3:src/../h/syscall_cpp.hpp **** //
   4:src/../h/syscall_cpp.hpp **** 
   5:src/../h/syscall_cpp.hpp **** #ifndef PROJECT_BASE_V1_1_SYSCALL_CPP_HPP
   6:src/../h/syscall_cpp.hpp **** #define PROJECT_BASE_V1_1_SYSCALL_CPP_HPP
   7:src/../h/syscall_cpp.hpp **** 
   8:src/../h/syscall_cpp.hpp **** #include "syscall_c.hpp"
   9:src/../h/syscall_cpp.hpp **** 
  10:src/../h/syscall_cpp.hpp **** class Thread {
  11:src/../h/syscall_cpp.hpp **** public:
  12:src/../h/syscall_cpp.hpp ****     Thread (void (*body)(void*), void* args);
  13:src/../h/syscall_cpp.hpp ****     virtual ~Thread ();
  14:src/../h/syscall_cpp.hpp **** 
  15:src/../h/syscall_cpp.hpp ****     int start ();
  16:src/../h/syscall_cpp.hpp **** 
  17:src/../h/syscall_cpp.hpp ****     void join();
  18:src/../h/syscall_cpp.hpp **** 
  19:src/../h/syscall_cpp.hpp ****     static void dispatch ();
  20:src/../h/syscall_cpp.hpp **** 
  21:src/../h/syscall_cpp.hpp ****     static int sleep (time_t);
  22:src/../h/syscall_cpp.hpp **** 
  23:src/../h/syscall_cpp.hpp ****     static void wrapper(void* args);
  24:src/../h/syscall_cpp.hpp **** 
  25:src/../h/syscall_cpp.hpp **** protected:
  26:src/../h/syscall_cpp.hpp ****     Thread ();
  27:src/../h/syscall_cpp.hpp ****     virtual void run () {}
  13              		.loc 1 27 18
  14              		.cfi_startproc
  15              	.LVL0:
  16 0000 130101FF 		addi	sp,sp,-16
  17              		.cfi_def_cfa_offset 16
  18 0004 23348100 		sd	s0,8(sp)
  19              		.cfi_offset 8, -8
  20 0008 13040101 		addi	s0,sp,16
  21              		.cfi_def_cfa 8, 0
  22              		.loc 1 27 26 is_stmt 0
  23 000c 03348100 		ld	s0,8(sp)
  24              		.cfi_restore 8
  25              		.cfi_def_cfa 2, 16
  26 0010 13010101 		addi	sp,sp,16
  27              		.cfi_def_cfa_offset 0
  28 0014 67800000 		jr	ra
  29              		.cfi_endproc
  30              	.LFE0:
  32              		.text
GAS LISTING /tmp/ccw7uBqy.s 			page 2


  33              		.align	2
  34              		.globl	_ZN6Thread7wrapperEPv
  36              	_ZN6Thread7wrapperEPv:
  37              	.LFB24:
  38              		.file 2 "src/Thread.cpp"
   1:src/Thread.cpp **** //
   2:src/Thread.cpp **** // Created by Danilo on 5/30/23.
   3:src/Thread.cpp **** //
   4:src/Thread.cpp **** 
   5:src/Thread.cpp **** #include "../h/syscall_cpp.hpp"
   6:src/Thread.cpp **** #include "../h/_thread.hpp"
   7:src/Thread.cpp **** 
   8:src/Thread.cpp **** Thread::Thread(void (*body)(void *), void *args) {
   9:src/Thread.cpp ****     thread_create(&this->myHandle, body, args);
  10:src/Thread.cpp **** //    thread_start(this->myHandle);
  11:src/Thread.cpp **** }
  12:src/Thread.cpp **** 
  13:src/Thread.cpp **** Thread::~Thread() {
  14:src/Thread.cpp ****     delete this->myHandle;
  15:src/Thread.cpp **** }
  16:src/Thread.cpp **** 
  17:src/Thread.cpp **** int Thread::start() {
  18:src/Thread.cpp ****     return thread_start(this->myHandle);
  19:src/Thread.cpp **** }
  20:src/Thread.cpp **** 
  21:src/Thread.cpp **** void Thread::join() {
  22:src/Thread.cpp ****     thread_join(this->myHandle);
  23:src/Thread.cpp **** }
  24:src/Thread.cpp **** 
  25:src/Thread.cpp **** void Thread::dispatch() {
  26:src/Thread.cpp ****     thread_dispatch();
  27:src/Thread.cpp **** }
  28:src/Thread.cpp **** 
  29:src/Thread.cpp **** void Thread::wrapper(void *args) {
  39              		.loc 2 29 34 is_stmt 1
  40              		.cfi_startproc
  41              	.LVL1:
  30:src/Thread.cpp ****     if(args){
  42              		.loc 2 30 5
  43 0000 63080502 		beqz	a0,.L6
  29:src/Thread.cpp ****     if(args){
  44              		.loc 2 29 34 is_stmt 0
  45 0004 130101FF 		addi	sp,sp,-16
  46              		.cfi_def_cfa_offset 16
  47 0008 23341100 		sd	ra,8(sp)
  48 000c 23308100 		sd	s0,0(sp)
  49              		.cfi_offset 1, -8
  50              		.cfi_offset 8, -16
  51 0010 13040101 		addi	s0,sp,16
  52              		.cfi_def_cfa 8, 0
  31:src/Thread.cpp ****         ((Thread*)args)->run();
  53              		.loc 2 31 9 is_stmt 1
  54              		.loc 2 31 30 is_stmt 0
  55 0014 83370500 		ld	a5,0(a0)
  56 0018 83B70701 		ld	a5,16(a5)
  57              		.loc 2 31 29
  58 001c E7800700 		jalr	a5
GAS LISTING /tmp/ccw7uBqy.s 			page 3


  59              	.LVL2:
  32:src/Thread.cpp ****     }
  33:src/Thread.cpp **** }
  60              		.loc 2 33 1
  61 0020 83308100 		ld	ra,8(sp)
  62              		.cfi_restore 1
  63 0024 03340100 		ld	s0,0(sp)
  64              		.cfi_restore 8
  65              		.cfi_def_cfa 2, 16
  66 0028 13010101 		addi	sp,sp,16
  67              		.cfi_def_cfa_offset 0
  68 002c 67800000 		jr	ra
  69              	.LVL3:
  70              	.L6:
  71 0030 67800000 		ret
  72              		.cfi_endproc
  73              	.LFE24:
  75              		.align	2
  76              		.globl	_ZN6ThreadD2Ev
  78              	_ZN6ThreadD2Ev:
  79              	.LFB18:
  13:src/Thread.cpp ****     delete this->myHandle;
  80              		.loc 2 13 1 is_stmt 1
  81              		.cfi_startproc
  82              		.cfi_personality 0x9b,DW.ref.__gxx_personality_v0
  83              		.cfi_lsda 0x1b,.LLSDA18
  84              	.LVL4:
  85 0034 130101FE 		addi	sp,sp,-32
  86              		.cfi_def_cfa_offset 32
  87 0038 233C1100 		sd	ra,24(sp)
  88 003c 23388100 		sd	s0,16(sp)
  89 0040 23349100 		sd	s1,8(sp)
  90              		.cfi_offset 1, -8
  91              		.cfi_offset 8, -16
  92              		.cfi_offset 9, -24
  93 0044 13040102 		addi	s0,sp,32
  94              		.cfi_def_cfa 8, 0
  95              	.LBB6:
  13:src/Thread.cpp ****     delete this->myHandle;
  96              		.loc 2 13 17 is_stmt 0
  97 0048 97070000 		lla	a5,_ZTV6Thread+16
  97      93870700 
  98 0050 2330F500 		sd	a5,0(a0)
  14:src/Thread.cpp **** }
  99              		.loc 2 14 5 is_stmt 1
  14:src/Thread.cpp **** }
 100              		.loc 2 14 18 is_stmt 0
 101 0054 83348500 		ld	s1,8(a0)
  14:src/Thread.cpp **** }
 102              		.loc 2 14 26
 103 0058 63800402 		beqz	s1,.L9
 104              	.LVL5:
 105              	.LBB7:
 106              	.LBB8:
 107              		.file 3 "src/../h/_thread.hpp"
   1:src/../h/_thread.hpp **** //
   2:src/../h/_thread.hpp **** // Created by Danilo on 5/29/23.
GAS LISTING /tmp/ccw7uBqy.s 			page 4


   3:src/../h/_thread.hpp **** // Preuzeto sa snimka iz vezbi 7.
   4:src/../h/_thread.hpp **** //
   5:src/../h/_thread.hpp **** 
   6:src/../h/_thread.hpp **** #ifndef PROJECT_BASE_V1_1__THREAD_HPP
   7:src/../h/_thread.hpp **** #define PROJECT_BASE_V1_1__THREAD_HPP
   8:src/../h/_thread.hpp **** 
   9:src/../h/_thread.hpp **** #include "../lib/hw.h"
  10:src/../h/_thread.hpp **** #include "../h/Scheduler.hpp"
  11:src/../h/_thread.hpp **** 
  12:src/../h/_thread.hpp **** class _thread {
  13:src/../h/_thread.hpp **** public:
  14:src/../h/_thread.hpp **** 
  15:src/../h/_thread.hpp ****     ~_thread() {
  16:src/../h/_thread.hpp ****         delete[] stack;
 108              		.loc 3 16 9 is_stmt 1
 109              		.loc 3 16 18 is_stmt 0
 110 005c 03B50401 		ld	a0,16(s1)
 111              	.LVL6:
 112              		.loc 3 16 23
 113 0060 63060500 		beqz	a0,.L11
 114              		.loc 3 16 18
 115 0064 97000000 		call	_ZdaPv@plt
 115      E7800000 
 116              	.LVL7:
 117              	.L11:
 118              	.LBE8:
 119              	.LBE7:
  14:src/Thread.cpp **** }
 120              		.loc 2 14 18
 121 006c 13850400 		mv	a0,s1
 122 0070 97000000 		call	_ZN7_threaddlEPv@plt
 122      E7800000 
 123              	.LVL8:
 124              	.L9:
 125              	.LBE6:
  15:src/Thread.cpp **** 
 126              		.loc 2 15 1
 127 0078 83308101 		ld	ra,24(sp)
 128              		.cfi_restore 1
 129 007c 03340101 		ld	s0,16(sp)
 130              		.cfi_restore 8
 131              		.cfi_def_cfa 2, 32
 132 0080 83348100 		ld	s1,8(sp)
 133              		.cfi_restore 9
 134 0084 13010102 		addi	sp,sp,32
 135              		.cfi_def_cfa_offset 0
 136 0088 67800000 		jr	ra
 137              		.cfi_endproc
 138              	.LFE18:
 139              		.globl	__gxx_personality_v0
 140              		.section	.gcc_except_table,"a",@progbits
 141              	.LLSDA18:
 142 0000 FF       		.byte	0xff
 143 0001 FF       		.byte	0xff
 144 0002 03       		.byte	0x3
 145 0003 00       		.byte	0
 146              		.text
GAS LISTING /tmp/ccw7uBqy.s 			page 5


 148              		.globl	_ZN6ThreadD1Ev
 149              		.set	_ZN6ThreadD1Ev,_ZN6ThreadD2Ev
 150              		.align	2
 151              		.globl	_ZN6ThreadD0Ev
 153              	_ZN6ThreadD0Ev:
 154              	.LFB20:
  13:src/Thread.cpp ****     delete this->myHandle;
 155              		.loc 2 13 1 is_stmt 1
 156              		.cfi_startproc
 157              	.LVL9:
 158 008c 130101FE 		addi	sp,sp,-32
 159              		.cfi_def_cfa_offset 32
 160 0090 233C1100 		sd	ra,24(sp)
 161 0094 23388100 		sd	s0,16(sp)
 162 0098 23349100 		sd	s1,8(sp)
 163              		.cfi_offset 1, -8
 164              		.cfi_offset 8, -16
 165              		.cfi_offset 9, -24
 166 009c 13040102 		addi	s0,sp,32
 167              		.cfi_def_cfa 8, 0
 168 00a0 93040500 		mv	s1,a0
  15:src/Thread.cpp **** 
 169              		.loc 2 15 1 is_stmt 0
 170 00a4 97000000 		call	_ZN6ThreadD1Ev
 170      E7800000 
 171              	.LVL10:
 172 00ac 13850400 		mv	a0,s1
 173 00b0 97000000 		call	_ZdlPv@plt
 173      E7800000 
 174              	.LVL11:
 175 00b8 83308101 		ld	ra,24(sp)
 176              		.cfi_restore 1
 177 00bc 03340101 		ld	s0,16(sp)
 178              		.cfi_restore 8
 179              		.cfi_def_cfa 2, 32
 180 00c0 83348100 		ld	s1,8(sp)
 181              		.cfi_restore 9
 182              	.LVL12:
 183 00c4 13010102 		addi	sp,sp,32
 184              		.cfi_def_cfa_offset 0
 185 00c8 67800000 		jr	ra
 186              		.cfi_endproc
 187              	.LFE20:
 189              		.align	2
 190              		.globl	_ZN6ThreadC2EPFvPvES0_
 192              	_ZN6ThreadC2EPFvPvES0_:
 193              	.LFB15:
   8:src/Thread.cpp ****     thread_create(&this->myHandle, body, args);
 194              		.loc 2 8 1 is_stmt 1
 195              		.cfi_startproc
 196              	.LVL13:
 197 00cc 130101FF 		addi	sp,sp,-16
 198              		.cfi_def_cfa_offset 16
 199 00d0 23341100 		sd	ra,8(sp)
 200 00d4 23308100 		sd	s0,0(sp)
 201              		.cfi_offset 1, -8
 202              		.cfi_offset 8, -16
GAS LISTING /tmp/ccw7uBqy.s 			page 6


 203 00d8 13040101 		addi	s0,sp,16
 204              		.cfi_def_cfa 8, 0
 205              	.LBB9:
   8:src/Thread.cpp ****     thread_create(&this->myHandle, body, args);
 206              		.loc 2 8 48 is_stmt 0
 207 00dc 97070000 		lla	a5,_ZTV6Thread+16
 207      93870700 
 208 00e4 2330F500 		sd	a5,0(a0)
   9:src/Thread.cpp **** //    thread_start(this->myHandle);
 209              		.loc 2 9 5 is_stmt 1
   9:src/Thread.cpp **** //    thread_start(this->myHandle);
 210              		.loc 2 9 18 is_stmt 0
 211 00e8 13058500 		addi	a0,a0,8
 212              	.LVL14:
 213 00ec 97000000 		call	_Z13thread_createPP7_threadPFvPvES2_@plt
 213      E7800000 
 214              	.LVL15:
 215              	.LBE9:
  11:src/Thread.cpp **** 
 216              		.loc 2 11 1
 217 00f4 83308100 		ld	ra,8(sp)
 218              		.cfi_restore 1
 219 00f8 03340100 		ld	s0,0(sp)
 220              		.cfi_restore 8
 221              		.cfi_def_cfa 2, 16
 222 00fc 13010101 		addi	sp,sp,16
 223              		.cfi_def_cfa_offset 0
 224 0100 67800000 		jr	ra
 225              		.cfi_endproc
 226              	.LFE15:
 228              		.globl	_ZN6ThreadC1EPFvPvES0_
 229              		.set	_ZN6ThreadC1EPFvPvES0_,_ZN6ThreadC2EPFvPvES0_
 230              		.align	2
 231              		.globl	_ZN6Thread5startEv
 233              	_ZN6Thread5startEv:
 234              	.LFB21:
  17:src/Thread.cpp ****     return thread_start(this->myHandle);
 235              		.loc 2 17 21 is_stmt 1
 236              		.cfi_startproc
 237              	.LVL16:
 238 0104 130101FF 		addi	sp,sp,-16
 239              		.cfi_def_cfa_offset 16
 240 0108 23341100 		sd	ra,8(sp)
 241 010c 23308100 		sd	s0,0(sp)
 242              		.cfi_offset 1, -8
 243              		.cfi_offset 8, -16
 244 0110 13040101 		addi	s0,sp,16
 245              		.cfi_def_cfa 8, 0
  18:src/Thread.cpp **** }
 246              		.loc 2 18 5
  18:src/Thread.cpp **** }
 247              		.loc 2 18 24 is_stmt 0
 248 0114 03358500 		ld	a0,8(a0)
 249              	.LVL17:
 250 0118 97000000 		call	_Z12thread_startP7_thread@plt
 250      E7800000 
 251              	.LVL18:
GAS LISTING /tmp/ccw7uBqy.s 			page 7


  19:src/Thread.cpp **** 
 252              		.loc 2 19 1
 253 0120 83308100 		ld	ra,8(sp)
 254              		.cfi_restore 1
 255 0124 03340100 		ld	s0,0(sp)
 256              		.cfi_restore 8
 257              		.cfi_def_cfa 2, 16
 258 0128 13010101 		addi	sp,sp,16
 259              		.cfi_def_cfa_offset 0
 260 012c 67800000 		jr	ra
 261              		.cfi_endproc
 262              	.LFE21:
 264              		.align	2
 265              		.globl	_ZN6Thread4joinEv
 267              	_ZN6Thread4joinEv:
 268              	.LFB22:
  21:src/Thread.cpp ****     thread_join(this->myHandle);
 269              		.loc 2 21 21 is_stmt 1
 270              		.cfi_startproc
 271              	.LVL19:
 272 0130 130101FF 		addi	sp,sp,-16
 273              		.cfi_def_cfa_offset 16
 274 0134 23341100 		sd	ra,8(sp)
 275 0138 23308100 		sd	s0,0(sp)
 276              		.cfi_offset 1, -8
 277              		.cfi_offset 8, -16
 278 013c 13040101 		addi	s0,sp,16
 279              		.cfi_def_cfa 8, 0
  22:src/Thread.cpp **** }
 280              		.loc 2 22 5
  22:src/Thread.cpp **** }
 281              		.loc 2 22 16 is_stmt 0
 282 0140 03358500 		ld	a0,8(a0)
 283              	.LVL20:
 284 0144 97000000 		call	_Z11thread_joinP7_thread@plt
 284      E7800000 
 285              	.LVL21:
  23:src/Thread.cpp **** 
 286              		.loc 2 23 1
 287 014c 83308100 		ld	ra,8(sp)
 288              		.cfi_restore 1
 289 0150 03340100 		ld	s0,0(sp)
 290              		.cfi_restore 8
 291              		.cfi_def_cfa 2, 16
 292 0154 13010101 		addi	sp,sp,16
 293              		.cfi_def_cfa_offset 0
 294 0158 67800000 		jr	ra
 295              		.cfi_endproc
 296              	.LFE22:
 298              		.align	2
 299              		.globl	_ZN6Thread8dispatchEv
 301              	_ZN6Thread8dispatchEv:
 302              	.LFB23:
  25:src/Thread.cpp ****     thread_dispatch();
 303              		.loc 2 25 25 is_stmt 1
 304              		.cfi_startproc
 305 015c 130101FF 		addi	sp,sp,-16
GAS LISTING /tmp/ccw7uBqy.s 			page 8


 306              		.cfi_def_cfa_offset 16
 307 0160 23341100 		sd	ra,8(sp)
 308 0164 23308100 		sd	s0,0(sp)
 309              		.cfi_offset 1, -8
 310              		.cfi_offset 8, -16
 311 0168 13040101 		addi	s0,sp,16
 312              		.cfi_def_cfa 8, 0
  26:src/Thread.cpp **** }
 313              		.loc 2 26 5
  26:src/Thread.cpp **** }
 314              		.loc 2 26 20 is_stmt 0
 315 016c 97000000 		call	_Z15thread_dispatchv@plt
 315      E7800000 
 316              	.LVL22:
  27:src/Thread.cpp **** 
 317              		.loc 2 27 1
 318 0174 83308100 		ld	ra,8(sp)
 319              		.cfi_restore 1
 320 0178 03340100 		ld	s0,0(sp)
 321              		.cfi_restore 8
 322              		.cfi_def_cfa 2, 16
 323 017c 13010101 		addi	sp,sp,16
 324              		.cfi_def_cfa_offset 0
 325 0180 67800000 		jr	ra
 326              		.cfi_endproc
 327              	.LFE23:
 329              		.align	2
 330              		.globl	_ZN6ThreadC2Ev
 332              	_ZN6ThreadC2Ev:
 333              	.LFB26:
  34:src/Thread.cpp **** 
  35:src/Thread.cpp **** Thread::Thread() {
 334              		.loc 2 35 1 is_stmt 1
 335              		.cfi_startproc
 336              	.LVL23:
 337 0184 130101FF 		addi	sp,sp,-16
 338              		.cfi_def_cfa_offset 16
 339 0188 23341100 		sd	ra,8(sp)
 340 018c 23308100 		sd	s0,0(sp)
 341              		.cfi_offset 1, -8
 342              		.cfi_offset 8, -16
 343 0190 13040101 		addi	s0,sp,16
 344              		.cfi_def_cfa 8, 0
 345              	.LBB10:
 346              		.loc 2 35 16 is_stmt 0
 347 0194 97070000 		lla	a5,_ZTV6Thread+16
 347      93870700 
 348 019c 2330F500 		sd	a5,0(a0)
  36:src/Thread.cpp ****     thread_only(&this->myHandle, Thread::wrapper, this);
 349              		.loc 2 36 5 is_stmt 1
 350              		.loc 2 36 16 is_stmt 0
 351 01a0 13060500 		mv	a2,a0
 352 01a4 97050000 		lla	a1,_ZN6Thread7wrapperEPv
 352      93850500 
 353 01ac 13058500 		addi	a0,a0,8
 354              	.LVL24:
 355 01b0 97000000 		call	_Z11thread_onlyPP7_threadPFvPvES2_@plt
GAS LISTING /tmp/ccw7uBqy.s 			page 9


 355      E7800000 
 356              	.LVL25:
 357              	.LBE10:
  37:src/Thread.cpp **** }
 358              		.loc 2 37 1
 359 01b8 83308100 		ld	ra,8(sp)
 360              		.cfi_restore 1
 361 01bc 03340100 		ld	s0,0(sp)
 362              		.cfi_restore 8
 363              		.cfi_def_cfa 2, 16
 364 01c0 13010101 		addi	sp,sp,16
 365              		.cfi_def_cfa_offset 0
 366 01c4 67800000 		jr	ra
 367              		.cfi_endproc
 368              	.LFE26:
 370              		.globl	_ZN6ThreadC1Ev
 371              		.set	_ZN6ThreadC1Ev,_ZN6ThreadC2Ev
 372              		.weak	_ZTV6Thread
 373              		.section	.data.rel.ro.local._ZTV6Thread,"awG",@progbits,_ZTV6Thread,comdat
 374              		.align	3
 377              	_ZTV6Thread:
 378 0000 00000000 		.dword	0
 378      00000000 
 379 0008 00000000 		.dword	0
 379      00000000 
 380 0010 00000000 		.dword	_ZN6ThreadD1Ev
 380      00000000 
 381 0018 00000000 		.dword	_ZN6ThreadD0Ev
 381      00000000 
 382 0020 00000000 		.dword	_ZN6Thread3runEv
 382      00000000 
 383              		.text
 384              	.Letext0:
 385              		.file 4 "src/../h/../lib/hw.h"
 386              		.file 5 "src/../h/syscall_c.hpp"
 2761              		.align	3
 2764              	DW.ref.__gxx_personality_v0:
 2765 0000 00000000 		.dword	__gxx_personality_v0
 2765      00000000 
 2766              		.ident	"GCC: (Ubuntu 9.4.0-1ubuntu1~20.04) 9.4.0"
 2767              		.section	.note.GNU-stack,"",@progbits
GAS LISTING /tmp/ccw7uBqy.s 			page 10

